Archive member included because of file (symbol)

c:/program files/microchip/mplabc32/v2.02/bin/../lib/gcc/pic32mx/4.5.1\libgcc.a(_udivdi3.o)
                              build/default/production/_ext/1954962658/AutoIP.o (__udivdi3)
c:/program files/microchip/mplabc32/v2.02/bin/../lib/gcc/pic32mx/4.5.1/../../../../pic32mx/lib\libc.a(memcmp.o)
                              build/default/production/_ext/1954962658/HTTP2.o (memcmp)
c:/program files/microchip/mplabc32/v2.02/bin/../lib/gcc/pic32mx/4.5.1/../../../../pic32mx/lib\libc.a(memcpy.o)
                              build/default/production/_ext/1954962658/Announce.o (memcpy)
c:/program files/microchip/mplabc32/v2.02/bin/../lib/gcc/pic32mx/4.5.1/../../../../pic32mx/lib\libc.a(memset.o)
                              build/default/production/_ext/1954962658/BerkeleyAPI.o (memset)
c:/program files/microchip/mplabc32/v2.02/bin/../lib/gcc/pic32mx/4.5.1/../../../../pic32mx/lib\libc.a(strcmp.o)
                              build/default/production/_ext/1954962658/HTTP2.o (strcmp)
c:/program files/microchip/mplabc32/v2.02/bin/../lib/gcc/pic32mx/4.5.1/../../../../pic32mx/lib\libc.a(strlen.o)
                              build/default/production/_ext/1954962658/HTTP2.o (strlen)
c:/program files/microchip/mplabc32/v2.02/bin/../lib/gcc/pic32mx/4.5.1/../../../../pic32mx/lib\libc.a(general-exception.o)
                              c:/program files/microchip/mplabc32/v2.02/bin/../lib/gcc/pic32mx/4.5.1/../../../../pic32mx/lib/crt0.o (_general_exception_context)
c:/program files/microchip/mplabc32/v2.02/bin/../lib/gcc/pic32mx/4.5.1/../../../../pic32mx/lib\libc.a(atoi.o)
                              build/default/production/_ext/1954962658/SMTP.o (atoi)
c:/program files/microchip/mplabc32/v2.02/bin/../lib/gcc/pic32mx/4.5.1/../../../../pic32mx/lib\libc.a(atol.o)
                              build/default/production/_ext/1954962658/HTTP2.o (atol)
c:/program files/microchip/mplabc32/v2.02/bin/../lib/gcc/pic32mx/4.5.1/../../../../pic32mx/lib\libc.a(ctype.o)
                              c:/program files/microchip/mplabc32/v2.02/bin/../lib/gcc/pic32mx/4.5.1/../../../../pic32mx/lib\libc.a(atoi.o) (_ctype)
c:/program files/microchip/mplabc32/v2.02/bin/../lib/gcc/pic32mx/4.5.1/../../../../pic32mx/lib\libc.a(strchr.o)
                              build/default/production/_ext/1954962658/SMTP.o (strchr)
c:/program files/microchip/mplabc32/v2.02/bin/../lib/gcc/pic32mx/4.5.1/../../../../pic32mx/lib\libc.a(strstr.o)
                              build/default/production/_ext/1954962658/SMTP.o (strstr)
c:/program files/microchip/mplabc32/v2.02/bin/../lib/gcc/pic32mx/4.5.1/../../../../pic32mx/lib\libc.a(default-bootstrap-exception-handler.o)
                              c:/program files/microchip/mplabc32/v2.02/bin/../lib/gcc/pic32mx/4.5.1/../../../../pic32mx/lib/crt0.o (_bootstrap_exception_handler)
c:/program files/microchip/mplabc32/v2.02/bin/../lib/gcc/pic32mx/4.5.1/../../../../pic32mx/lib\libc.a(default-on-reset.o)
                              c:/program files/microchip/mplabc32/v2.02/bin/../lib/gcc/pic32mx/4.5.1/../../../../pic32mx/lib/crt0.o (_on_reset)
c:/program files/microchip/mplabc32/v2.02/bin/../lib/gcc/pic32mx/4.5.1/../../../../pic32mx/lib\libc.a(default-on-bootstrap.o)
                              c:/program files/microchip/mplabc32/v2.02/bin/../lib/gcc/pic32mx/4.5.1/../../../../pic32mx/lib/crt0.o (_on_bootstrap)
c:/program files/microchip/mplabc32/v2.02/bin/../lib/gcc/pic32mx/4.5.1/../../../../pic32mx/lib\libc.a(default-nmi-handler.o)
                              c:/program files/microchip/mplabc32/v2.02/bin/../lib/gcc/pic32mx/4.5.1/../../../../pic32mx/lib/crt0.o (_nmi_handler)
c:/program files/microchip/mplabc32/v2.02/bin/../lib/gcc/pic32mx/4.5.1/../../../../pic32mx/lib\libc.a(strncmp.o)
                              c:/program files/microchip/mplabc32/v2.02/bin/../lib/gcc/pic32mx/4.5.1/../../../../pic32mx/lib\libc.a(strstr.o) (strncmp)
c:/program files/microchip/mplabc32/v2.02/bin/../lib/gcc/pic32mx/4.5.1/../../../../pic32mx/lib\libmchp_peripheral_32MX460F512L.a(soft_reset_lib.o)
                              build/default/production/_ext/1954962658/ENC28J60.o (SoftReset)
c:/program files/microchip/mplabc32/v2.02/bin/../lib/gcc/pic32mx/4.5.1/../../../../pic32mx/lib\libmchp_peripheral_32MX460F512L.a(pcache.o)
                              build/default/production/_ext/1472/MainDemo.o (CheKseg0CacheOn)
c:/program files/microchip/mplabc32/v2.02/bin/../lib/gcc/pic32mx/4.5.1/../../../../pic32mx/lib\libmchp_peripheral_32MX460F512L.a(int_disable_interrupts_lib.o)
                              build/default/production/_ext/1472/MainDemo.o (INTDisableInterrupts)
c:/program files/microchip/mplabc32/v2.02/bin/../lib/gcc/pic32mx/4.5.1/../../../../pic32mx/lib\libmchp_peripheral_32MX460F512L.a(int_restore_interrupts_lib.o)
                              build/default/production/_ext/1472/MainDemo.o (INTRestoreInterrupts)
c:/program files/microchip/mplabc32/v2.02/bin/../lib/gcc/pic32mx/4.5.1/../../../../pic32mx/lib\libmchp_peripheral_32MX460F512L.a(int_enable_mv_int_lib.o)
                              build/default/production/_ext/1472/MainDemo.o (INTEnableSystemMultiVectoredInt)
c:/program files/microchip/mplabc32/v2.02/bin/../lib/gcc/pic32mx/4.5.1/../../../../pic32mx/lib\libmchp_peripheral_32MX460F512L.a(uart_lib.o)
                              build/default/production/_ext/1472/MainDemo.o (UARTEnable)
c:/program files/microchip/mplabc32/v2.02/bin/../lib/gcc/pic32mx/4.5.1/../../../../pic32mx/lib\libmchp_peripheral_32MX460F512L.a(int_enable_interrupts_lib.o)
                              c:/program files/microchip/mplabc32/v2.02/bin/../lib/gcc/pic32mx/4.5.1/../../../../pic32mx/lib\libmchp_peripheral_32MX460F512L.a(int_enable_mv_int_lib.o) (INTEnableInterrupts)

Allocating common symbols
Common symbol       size              file

UDPTxCount          0x2               build/default/production/_ext/1954962658/UDP.o
curHTTP             0x8c              build/default/production/_ext/1954962658/HTTP2.o
activeUDPSocket     0x1               build/default/production/_ext/1954962658/UDP.o
curHTTPID           0x1               build/default/production/_ext/1954962658/HTTP2.o
remoteNode          0xa               build/default/production/_ext/1954962658/StackTsk.o
SMTPClient          0x2c              build/default/production/_ext/1954962658/SMTP.o
lastBlock           0x40              build/default/production/_ext/1954962658/Hashes.o
AppConfig           0x33              build/default/production/_ext/1472/MainDemo.o
UDPRxCount          0x2               build/default/production/_ext/1954962658/UDP.o
UDPSocketInfo       0x70              build/default/production/_ext/1954962658/UDP.o
httpStubs           0x10              build/default/production/_ext/1954962658/HTTP2.o
AN0String           0x8               build/default/production/_ext/1472/MainDemo.o

Microchip PIC32 Memory-Usage Report

kseg0 Program-Memory Usage
section                    address  length [bytes]      (dec)  Description
-------                 ----------  -------------------------  -----------
.text                   0x9d007e08         0x8470       33904  App's exec code 
.rodata                 0x9d010278         0x7aa8       31400  Read-only const 
.text                   0x9d017d20        0x1917c      102780  App's exec code 
.rodata                 0x9d030e9c          0x548        1352  Read-only const 
.text                   0x9d0313e4          0xd20        3360  App's exec code 
.dinit                  0x9d032104          0x414        1044   
.rodata                 0x9d032518          0x3bc         956  Read-only const 
.text                   0x9d0328d4         0x1ae8        6888  App's exec code 
.rodata                 0x9d0343bc          0x434        1076  Read-only const 
.text                   0x9d0347f0          0x57c        1404  App's exec code 
.rodata                 0x9d034d6c          0x270         624  Read-only const 
.text                   0x9d034fdc          0x120         288  App's exec code 
.rodata                 0x9d0350fc          0x104         260  Read-only const 
.text                   0x9d035200           0xf0         240  App's exec code 
.text.general_exception 0x9d0352f0           0xd0         208   
.text                   0x9d0353c0           0xa8         168  App's exec code 
.text.atoi              0x9d035468           0xa4         164   
.text.atol              0x9d03550c           0xa4         164   
.text.strstr            0x9d0355b0           0xa4         164   
.rodata                 0x9d035654           0x98         152  Read-only const 
.text                   0x9d0356ec           0x98         152  App's exec code 
.rodata                 0x9d035784           0x94         148  Read-only const 
.text.UARTEnable        0x9d035818           0x80         128   
.text.SoftReset         0x9d035898           0x78         120   
.text.strncmp           0x9d035910           0x70         112   
.rodata                 0x9d035980           0x5c          92  Read-only const 
.text.UARTSetDataRate   0x9d0359dc           0x5c          92   
.rodata                 0x9d035a38           0x50          80  Read-only const 
.text.UARTGetDataRate   0x9d035a88           0x40          64   
.text.UARTConfigure     0x9d035ac8           0x3c          60   
.text.UARTSetAddress    0x9d035b04           0x3c          60   
.rodata                 0x9d035b40           0x38          56  Read-only const 
.text.UARTWatchForAddre 0x9d035b78           0x38          56   
.text.INTEnableSystemMu 0x9d035bb0           0x34          52   
.rodata                 0x9d035be4           0x2c          44  Read-only const 
.text.strchr            0x9d035c10           0x28          40   
.text.UARTSetFifoMode   0x9d035c38           0x28          40   
.text.UARTSetLineContro 0x9d035c60           0x28          40   
.rodata                 0x9d035c88           0x1c          28  Read-only const 
.text.INTRestoreInterru 0x9d035ca4           0x1c          28   
.text                   0x9d035cc0           0x18          24  App's exec code 
.text.CheKseg0CacheOff  0x9d035cd8           0x18          24   
.text.CheKseg0CacheOn   0x9d035cf0           0x18          24   
.rodata                 0x9d035d08           0x14          20  Read-only const 
.text                   0x9d035d1c           0x10          16  App's exec code 
.rodata                 0x9d035d2c           0x20          32  Read-only const 
.text._bootstrap_except 0x9d035d4c            0xc          12   
.rodata                 0x9d035d58            0x8           8  Read-only const 
.text._on_reset         0x9d035d60            0x8           8   
.text._on_bootstrap     0x9d035d68            0x8           8   
.text.INTDisableInterru 0x9d035d70            0x8           8   
.rodata                 0x9d035d78            0x8           8  Read-only const 
.text.INTEnableInterrup 0x9d035d80            0x8           8   
      Total kseg0_program_mem used  :     0x2df80      188288  38.3% of 0x78200

kseg0 Boot-Memory Usage
section                    address  length [bytes]      (dec)  Description
-------                 ----------  -------------------------  -----------
         Total kseg0_boot_mem used  :           0           0  <1% of 0x970

Exception-Memory Usage 
section                    address  length [bytes]      (dec)  Description
-------                 ----------  -------------------------  -----------
.app_excpt              0x9d006180           0x10          16  General-Exception 
.vector_4               0x9d006280            0x8           8  Interrupt Vector 4 
          Total exception_mem used  :        0x18          24  0.6% of 0x1000

kseg1 Boot-Memory Usage
section                    address  length [bytes]      (dec)  Description
-------                 ----------  -------------------------  -----------
.reset                  0x9d007970          0x1f4         500  Reset handler 
.bev_excpt              0x9d007cf0           0x10          16  BEV-Exception 
         Total kseg1_boot_mem used  :       0x204         516  44.2% of 0x490
        --------------------------------------------------------------------------
         Total Program Memory used  :     0x2e19c      188828  37.8% of 0x7a000
        --------------------------------------------------------------------------


kseg1 Data-Memory Usage
section                    address  length [bytes]      (dec)  Description
-------                 ----------  -------------------------  -----------
.eh_frame               0xa0000000           0x28          40   
.sdata                  0xa0000028           0x2c          44  Small init data 
.sbss                   0xa0000054          0x164         356  Small uninit data 
.bss                    0xa00001b8          0x1b8         440  Uninitialized data 
.bss                    0xa0000370          0x328         808  Uninitialized data 
.data                   0xa0000698           0x70         112  Initialized data 
.bss                    0xa0000708           0x5c          92  Uninitialized data 
.data                   0xa0000764           0x48          72  Initialized data 
.bss                    0xa00007ac           0x9c         156  Uninitialized data 
.data                   0xa0000848           0x10          16  Initialized data 
.bss                    0xa0000858           0x30          48  Uninitialized data 
         Total kseg1_data_mem used  :       0x888        2184  6.7% of 0x8000
        --------------------------------------------------------------------------
            Total Data Memory used  :       0x888        2184  6.7% of 0x8000
        --------------------------------------------------------------------------


Dynamic Data-Memory Reservation
section                    address  length [bytes]      (dec)  Description
-------                 ----------  -------------------------  -----------
heap                    0xa0000890              0           0  Reserved for heap 
stack                   0xa00008a8         0x7750       30544  Reserved for stack 

        --------------------------------------------------------------------------

Discarded input sections

 .reginfo       0x00000000       0x18 c:/program files/microchip/mplabc32/v2.02/bin/../lib/gcc/pic32mx/4.5.1/../../../../pic32mx/lib/crt0.o
 .pdr           0x00000000       0xa0 c:/program files/microchip/mplabc32/v2.02/bin/../lib/gcc/pic32mx/4.5.1/../../../../pic32mx/lib/crt0.o
 .reginfo       0x00000000       0x18 build/default/production/_ext/1954962658/Announce.o
 .pdr           0x00000000       0x40 build/default/production/_ext/1954962658/Announce.o
 .reginfo       0x00000000       0x18 build/default/production/_ext/1954962658/ARCFOUR.o
 .pdr           0x00000000        0x0 build/default/production/_ext/1954962658/ARCFOUR.o
 .reginfo       0x00000000       0x18 build/default/production/_ext/1954962658/ARP.o
 .pdr           0x00000000       0xc0 build/default/production/_ext/1954962658/ARP.o
 .reginfo       0x00000000       0x18 build/default/production/_ext/1954962658/AutoIP.o
 .pdr           0x00000000      0x140 build/default/production/_ext/1954962658/AutoIP.o
 .reginfo       0x00000000       0x18 build/default/production/_ext/1954962658/BerkeleyAPI.o
 .pdr           0x00000000      0x1a0 build/default/production/_ext/1954962658/BerkeleyAPI.o
 .reginfo       0x00000000       0x18 build/default/production/_ext/1954962658/BigInt.o
 .pdr           0x00000000        0x0 build/default/production/_ext/1954962658/BigInt.o
 .reginfo       0x00000000       0x18 build/default/production/_ext/1954962658/Delay.o
 .pdr           0x00000000       0x40 build/default/production/_ext/1954962658/Delay.o
 .reginfo       0x00000000       0x18 build/default/production/_ext/1954962658/DHCP.o
 .pdr           0x00000000      0x140 build/default/production/_ext/1954962658/DHCP.o
 .reginfo       0x00000000       0x18 build/default/production/_ext/1954962658/DHCPs.o
 .pdr           0x00000000       0x60 build/default/production/_ext/1954962658/DHCPs.o
 .reginfo       0x00000000       0x18 build/default/production/_ext/1954962658/DNS.o
 .pdr           0x00000000       0xc0 build/default/production/_ext/1954962658/DNS.o
 .reginfo       0x00000000       0x18 build/default/production/_ext/1954962658/DNSs.o
 .pdr           0x00000000        0x0 build/default/production/_ext/1954962658/DNSs.o
 .reginfo       0x00000000       0x18 build/default/production/_ext/1954962658/DynDNS.o
 .pdr           0x00000000        0x0 build/default/production/_ext/1954962658/DynDNS.o
 .reginfo       0x00000000       0x18 build/default/production/_ext/1954962658/ENC28J60.o
 .pdr           0x00000000      0x400 build/default/production/_ext/1954962658/ENC28J60.o
 .reginfo       0x00000000       0x18 build/default/production/_ext/1954962658/ENCX24J600.o
 .pdr           0x00000000        0x0 build/default/production/_ext/1954962658/ENCX24J600.o
 .reginfo       0x00000000       0x18 build/default/production/_ext/1954962658/FileSystem.o
 .pdr           0x00000000        0x0 build/default/production/_ext/1954962658/FileSystem.o
 .reginfo       0x00000000       0x18 build/default/production/_ext/1954962658/FTP.o
 .pdr           0x00000000        0x0 build/default/production/_ext/1954962658/FTP.o
 .reginfo       0x00000000       0x18 build/default/production/_ext/1954962658/Hashes.o
 .pdr           0x00000000       0xa0 build/default/production/_ext/1954962658/Hashes.o
 .reginfo       0x00000000       0x18 build/default/production/_ext/1954962658/Helpers.o
 .pdr           0x00000000      0x240 build/default/production/_ext/1954962658/Helpers.o
 .reginfo       0x00000000       0x18 build/default/production/_ext/1954962658/HTTP2.o
 .pdr           0x00000000      0x220 build/default/production/_ext/1954962658/HTTP2.o
 .reginfo       0x00000000       0x18 build/default/production/_ext/1954962658/ICMP.o
 .pdr           0x00000000       0xc0 build/default/production/_ext/1954962658/ICMP.o
 .reginfo       0x00000000       0x18 build/default/production/_ext/1954962658/IP.o
 .pdr           0x00000000       0x80 build/default/production/_ext/1954962658/IP.o
 .reginfo       0x00000000       0x18 build/default/production/_ext/1954962658/LCDBlocking.o
 .pdr           0x00000000        0x0 build/default/production/_ext/1954962658/LCDBlocking.o
 .reginfo       0x00000000       0x18 build/default/production/_ext/1954962658/MPFS2.o
 .pdr           0x00000000      0x280 build/default/production/_ext/1954962658/MPFS2.o
 .reginfo       0x00000000       0x18 build/default/production/_ext/1954962658/NBNS.o
 .pdr           0x00000000       0x60 build/default/production/_ext/1954962658/NBNS.o
 .reginfo       0x00000000       0x18 build/default/production/_ext/1954962658/Random.o
 .pdr           0x00000000        0x0 build/default/production/_ext/1954962658/Random.o
 .reginfo       0x00000000       0x18 build/default/production/_ext/1954962658/Reboot.o
 .pdr           0x00000000       0x20 build/default/production/_ext/1954962658/Reboot.o
 .reginfo       0x00000000       0x18 build/default/production/_ext/1954962658/RSA.o
 .pdr           0x00000000        0x0 build/default/production/_ext/1954962658/RSA.o
 .reginfo       0x00000000       0x18 build/default/production/_ext/1954962658/SMTP.o
 .pdr           0x00000000      0x1a0 build/default/production/_ext/1954962658/SMTP.o
 .reginfo       0x00000000       0x18 build/default/production/_ext/1954962658/SNMP.o
 .pdr           0x00000000        0x0 build/default/production/_ext/1954962658/SNMP.o
 .reginfo       0x00000000       0x18 build/default/production/_ext/1954962658/SNMPv3.o
 .pdr           0x00000000        0x0 build/default/production/_ext/1954962658/SNMPv3.o
 .reginfo       0x00000000       0x18 build/default/production/_ext/1954962658/SNMPv3USM.o
 .pdr           0x00000000        0x0 build/default/production/_ext/1954962658/SNMPv3USM.o
 .reginfo       0x00000000       0x18 build/default/production/_ext/1954962658/SNTP.o
 .pdr           0x00000000       0x40 build/default/production/_ext/1954962658/SNTP.o
 .reginfo       0x00000000       0x18 build/default/production/_ext/1954962658/SPIEEPROM.o
 .pdr           0x00000000        0x0 build/default/production/_ext/1954962658/SPIEEPROM.o
 .reginfo       0x00000000       0x18 build/default/production/_ext/1954962658/SPIFlash.o
 .pdr           0x00000000        0x0 build/default/production/_ext/1954962658/SPIFlash.o
 .reginfo       0x00000000       0x18 build/default/production/_ext/1954962658/SPIRAM.o
 .pdr           0x00000000        0x0 build/default/production/_ext/1954962658/SPIRAM.o
 .reginfo       0x00000000       0x18 build/default/production/_ext/1954962658/SSL.o
 .pdr           0x00000000        0x0 build/default/production/_ext/1954962658/SSL.o
 .reginfo       0x00000000       0x18 build/default/production/_ext/1954962658/StackTsk.o
 .pdr           0x00000000       0x60 build/default/production/_ext/1954962658/StackTsk.o
 .reginfo       0x00000000       0x18 build/default/production/_ext/1954962658/TCP.o
 .pdr           0x00000000      0x420 build/default/production/_ext/1954962658/TCP.o
 .reginfo       0x00000000       0x18 build/default/production/_ext/1954962658/TCPPerformanceTest.o
 .pdr           0x00000000       0x60 build/default/production/_ext/1954962658/TCPPerformanceTest.o
 .reginfo       0x00000000       0x18 build/default/production/_ext/1954962658/Telnet.o
 .pdr           0x00000000       0x20 build/default/production/_ext/1954962658/Telnet.o
 .reginfo       0x00000000       0x18 build/default/production/_ext/1954962658/TFTPc.o
 .pdr           0x00000000        0x0 build/default/production/_ext/1954962658/TFTPc.o
 .reginfo       0x00000000       0x18 build/default/production/_ext/1954962658/Tick.o
 .pdr           0x00000000      0x100 build/default/production/_ext/1954962658/Tick.o
 .reginfo       0x00000000       0x18 build/default/production/_ext/1954962658/UART2TCPBridge.o
 .pdr           0x00000000        0x0 build/default/production/_ext/1954962658/UART2TCPBridge.o
 .reginfo       0x00000000       0x18 build/default/production/_ext/1954962658/UART.o
 .pdr           0x00000000       0x60 build/default/production/_ext/1954962658/UART.o
 .reginfo       0x00000000       0x18 build/default/production/_ext/1954962658/UDP.o
 .pdr           0x00000000      0x220 build/default/production/_ext/1954962658/UDP.o
 .reginfo       0x00000000       0x18 build/default/production/_ext/1954962658/UDPPerformanceTest.o
 .pdr           0x00000000        0x0 build/default/production/_ext/1954962658/UDPPerformanceTest.o
 .reginfo       0x00000000       0x18 build/default/production/_ext/1954962658/ZeroconfHelper.o
 .pdr           0x00000000        0x0 build/default/production/_ext/1954962658/ZeroconfHelper.o
 .reginfo       0x00000000       0x18 build/default/production/_ext/1954962658/ZeroconfLinkLocal.o
 .pdr           0x00000000        0x0 build/default/production/_ext/1954962658/ZeroconfLinkLocal.o
 .reginfo       0x00000000       0x18 build/default/production/_ext/1954962658/ZeroconfMulticastDNS.o
 .pdr           0x00000000        0x0 build/default/production/_ext/1954962658/ZeroconfMulticastDNS.o
 .reginfo       0x00000000       0x18 build/default/production/_ext/1472/CustomHTTPApp.o
 .pdr           0x00000000      0x500 build/default/production/_ext/1472/CustomHTTPApp.o
 .reginfo       0x00000000       0x18 build/default/production/_ext/1472/CustomSNMPApp.o
 .pdr           0x00000000        0x0 build/default/production/_ext/1472/CustomSNMPApp.o
 .reginfo       0x00000000       0x18 build/default/production/_ext/1472/CustomSSLCert.o
 .pdr           0x00000000        0x0 build/default/production/_ext/1472/CustomSSLCert.o
 .reginfo       0x00000000       0x18 build/default/production/_ext/1472/MainDemo.o
 .pdr           0x00000000       0xc0 build/default/production/_ext/1472/MainDemo.o
 .reginfo       0x00000000       0x18 build/default/production/_ext/1472/BerkeleyTCPClientDemo.o
 .pdr           0x00000000       0x20 build/default/production/_ext/1472/BerkeleyTCPClientDemo.o
 .reginfo       0x00000000       0x18 build/default/production/_ext/1472/BerkeleyTCPServerDemo.o
 .pdr           0x00000000       0x20 build/default/production/_ext/1472/BerkeleyTCPServerDemo.o
 .reginfo       0x00000000       0x18 build/default/production/_ext/1472/BerkeleyUDPClientDemo.o
 .pdr           0x00000000       0x40 build/default/production/_ext/1472/BerkeleyUDPClientDemo.o
 .reginfo       0x00000000       0x18 build/default/production/_ext/1472/GenericTCPClient.o
 .pdr           0x00000000       0x20 build/default/production/_ext/1472/GenericTCPClient.o
 .reginfo       0x00000000       0x18 build/default/production/_ext/1472/GenericTCPServer.o
 .pdr           0x00000000       0x20 build/default/production/_ext/1472/GenericTCPServer.o
 .reginfo       0x00000000       0x18 build/default/production/_ext/1472/PingDemo.o
 .pdr           0x00000000       0x20 build/default/production/_ext/1472/PingDemo.o
 .reginfo       0x00000000       0x18 build/default/production/_ext/1472/SMTPDemo.o
 .pdr           0x00000000       0x20 build/default/production/_ext/1472/SMTPDemo.o
 .reginfo       0x00000000       0x18 build/default/production/_ext/1472/UARTConfig.o
 .pdr           0x00000000       0x20 build/default/production/_ext/1472/UARTConfig.o
 .reginfo       0x00000000       0x18 build/default/production/_ext/1472/MPFSImg2.o
 .pdr           0x00000000        0x0 build/default/production/_ext/1472/MPFSImg2.o
 .reginfo       0x00000000       0x18 build/default/production/_ext/1954962658/BigInt_helper_C32.o
 .pdr           0x00000000        0x0 build/default/production/_ext/1954962658/BigInt_helper_C32.o
 .reginfo       0x00000000       0x18 c:/program files/microchip/mplabc32/v2.02/bin/../lib/gcc/pic32mx/4.5.1/../../../../pic32mx/lib/./proc/32MX460F512L\processor.o
 .pdr           0x00000000        0x0 c:/program files/microchip/mplabc32/v2.02/bin/../lib/gcc/pic32mx/4.5.1/../../../../pic32mx/lib/./proc/32MX460F512L\processor.o
 .reginfo       0x00000000       0x18 c:/program files/microchip/mplabc32/v2.02/bin/../lib/gcc/pic32mx/4.5.1\libgcc.a(_udivdi3.o)
 .pdr           0x00000000       0x20 c:/program files/microchip/mplabc32/v2.02/bin/../lib/gcc/pic32mx/4.5.1\libgcc.a(_udivdi3.o)
 .reginfo       0x00000000       0x18 c:/program files/microchip/mplabc32/v2.02/bin/../lib/gcc/pic32mx/4.5.1/../../../../pic32mx/lib\libc.a(memcmp.o)
 .pdr           0x00000000       0x20 c:/program files/microchip/mplabc32/v2.02/bin/../lib/gcc/pic32mx/4.5.1/../../../../pic32mx/lib\libc.a(memcmp.o)
 .reginfo       0x00000000       0x18 c:/program files/microchip/mplabc32/v2.02/bin/../lib/gcc/pic32mx/4.5.1/../../../../pic32mx/lib\libc.a(memcpy.o)
 .pdr           0x00000000       0x20 c:/program files/microchip/mplabc32/v2.02/bin/../lib/gcc/pic32mx/4.5.1/../../../../pic32mx/lib\libc.a(memcpy.o)
 .reginfo       0x00000000       0x18 c:/program files/microchip/mplabc32/v2.02/bin/../lib/gcc/pic32mx/4.5.1/../../../../pic32mx/lib\libc.a(memset.o)
 .pdr           0x00000000       0x20 c:/program files/microchip/mplabc32/v2.02/bin/../lib/gcc/pic32mx/4.5.1/../../../../pic32mx/lib\libc.a(memset.o)
 .reginfo       0x00000000       0x18 c:/program files/microchip/mplabc32/v2.02/bin/../lib/gcc/pic32mx/4.5.1/../../../../pic32mx/lib\libc.a(strcmp.o)
 .pdr           0x00000000       0x20 c:/program files/microchip/mplabc32/v2.02/bin/../lib/gcc/pic32mx/4.5.1/../../../../pic32mx/lib\libc.a(strcmp.o)
 .reginfo       0x00000000       0x18 c:/program files/microchip/mplabc32/v2.02/bin/../lib/gcc/pic32mx/4.5.1/../../../../pic32mx/lib\libc.a(strlen.o)
 .pdr           0x00000000       0x20 c:/program files/microchip/mplabc32/v2.02/bin/../lib/gcc/pic32mx/4.5.1/../../../../pic32mx/lib\libc.a(strlen.o)
 .reginfo       0x00000000       0x18 c:/program files/microchip/mplabc32/v2.02/bin/../lib/gcc/pic32mx/4.5.1/../../../../pic32mx/lib\libc.a(general-exception.o)
 .pdr           0x00000000       0x20 c:/program files/microchip/mplabc32/v2.02/bin/../lib/gcc/pic32mx/4.5.1/../../../../pic32mx/lib\libc.a(general-exception.o)
 .reginfo       0x00000000       0x18 c:/program files/microchip/mplabc32/v2.02/bin/../lib/gcc/pic32mx/4.5.1/../../../../pic32mx/lib\libc.a(atoi.o)
 .pdr           0x00000000       0x20 c:/program files/microchip/mplabc32/v2.02/bin/../lib/gcc/pic32mx/4.5.1/../../../../pic32mx/lib\libc.a(atoi.o)
 .reginfo       0x00000000       0x18 c:/program files/microchip/mplabc32/v2.02/bin/../lib/gcc/pic32mx/4.5.1/../../../../pic32mx/lib\libc.a(atol.o)
 .pdr           0x00000000       0x20 c:/program files/microchip/mplabc32/v2.02/bin/../lib/gcc/pic32mx/4.5.1/../../../../pic32mx/lib\libc.a(atol.o)
 .reginfo       0x00000000       0x18 c:/program files/microchip/mplabc32/v2.02/bin/../lib/gcc/pic32mx/4.5.1/../../../../pic32mx/lib\libc.a(ctype.o)
 .pdr           0x00000000        0x0 c:/program files/microchip/mplabc32/v2.02/bin/../lib/gcc/pic32mx/4.5.1/../../../../pic32mx/lib\libc.a(ctype.o)
 .reginfo       0x00000000       0x18 c:/program files/microchip/mplabc32/v2.02/bin/../lib/gcc/pic32mx/4.5.1/../../../../pic32mx/lib\libc.a(strchr.o)
 .pdr           0x00000000       0x20 c:/program files/microchip/mplabc32/v2.02/bin/../lib/gcc/pic32mx/4.5.1/../../../../pic32mx/lib\libc.a(strchr.o)
 .reginfo       0x00000000       0x18 c:/program files/microchip/mplabc32/v2.02/bin/../lib/gcc/pic32mx/4.5.1/../../../../pic32mx/lib\libc.a(strstr.o)
 .pdr           0x00000000       0x20 c:/program files/microchip/mplabc32/v2.02/bin/../lib/gcc/pic32mx/4.5.1/../../../../pic32mx/lib\libc.a(strstr.o)
 .reginfo       0x00000000       0x18 c:/program files/microchip/mplabc32/v2.02/bin/../lib/gcc/pic32mx/4.5.1/../../../../pic32mx/lib\libc.a(default-bootstrap-exception-handler.o)
 .pdr           0x00000000       0x20 c:/program files/microchip/mplabc32/v2.02/bin/../lib/gcc/pic32mx/4.5.1/../../../../pic32mx/lib\libc.a(default-bootstrap-exception-handler.o)
 .reginfo       0x00000000       0x18 c:/program files/microchip/mplabc32/v2.02/bin/../lib/gcc/pic32mx/4.5.1/../../../../pic32mx/lib\libc.a(default-on-reset.o)
 .pdr           0x00000000       0x20 c:/program files/microchip/mplabc32/v2.02/bin/../lib/gcc/pic32mx/4.5.1/../../../../pic32mx/lib\libc.a(default-on-reset.o)
 .reginfo       0x00000000       0x18 c:/program files/microchip/mplabc32/v2.02/bin/../lib/gcc/pic32mx/4.5.1/../../../../pic32mx/lib\libc.a(default-on-bootstrap.o)
 .pdr           0x00000000       0x20 c:/program files/microchip/mplabc32/v2.02/bin/../lib/gcc/pic32mx/4.5.1/../../../../pic32mx/lib\libc.a(default-on-bootstrap.o)
 .reginfo       0x00000000       0x18 c:/program files/microchip/mplabc32/v2.02/bin/../lib/gcc/pic32mx/4.5.1/../../../../pic32mx/lib\libc.a(default-nmi-handler.o)
 .pdr           0x00000000       0x20 c:/program files/microchip/mplabc32/v2.02/bin/../lib/gcc/pic32mx/4.5.1/../../../../pic32mx/lib\libc.a(default-nmi-handler.o)
 .reginfo       0x00000000       0x18 c:/program files/microchip/mplabc32/v2.02/bin/../lib/gcc/pic32mx/4.5.1/../../../../pic32mx/lib\libc.a(strncmp.o)
 .pdr           0x00000000       0x20 c:/program files/microchip/mplabc32/v2.02/bin/../lib/gcc/pic32mx/4.5.1/../../../../pic32mx/lib\libc.a(strncmp.o)
 .reginfo       0x00000000       0x18 c:/program files/microchip/mplabc32/v2.02/bin/../lib/gcc/pic32mx/4.5.1/../../../../pic32mx/lib\libmchp_peripheral_32MX460F512L.a(soft_reset_lib.o)
 .pdr           0x00000000       0x20 c:/program files/microchip/mplabc32/v2.02/bin/../lib/gcc/pic32mx/4.5.1/../../../../pic32mx/lib\libmchp_peripheral_32MX460F512L.a(soft_reset_lib.o)
 .reginfo       0x00000000       0x18 c:/program files/microchip/mplabc32/v2.02/bin/../lib/gcc/pic32mx/4.5.1/../../../../pic32mx/lib\libmchp_peripheral_32MX460F512L.a(pcache.o)
 .pdr           0x00000000       0x40 c:/program files/microchip/mplabc32/v2.02/bin/../lib/gcc/pic32mx/4.5.1/../../../../pic32mx/lib\libmchp_peripheral_32MX460F512L.a(pcache.o)
 .reginfo       0x00000000       0x18 c:/program files/microchip/mplabc32/v2.02/bin/../lib/gcc/pic32mx/4.5.1/../../../../pic32mx/lib\libmchp_peripheral_32MX460F512L.a(int_disable_interrupts_lib.o)
 .pdr           0x00000000       0x20 c:/program files/microchip/mplabc32/v2.02/bin/../lib/gcc/pic32mx/4.5.1/../../../../pic32mx/lib\libmchp_peripheral_32MX460F512L.a(int_disable_interrupts_lib.o)
 .reginfo       0x00000000       0x18 c:/program files/microchip/mplabc32/v2.02/bin/../lib/gcc/pic32mx/4.5.1/../../../../pic32mx/lib\libmchp_peripheral_32MX460F512L.a(int_restore_interrupts_lib.o)
 .pdr           0x00000000       0x20 c:/program files/microchip/mplabc32/v2.02/bin/../lib/gcc/pic32mx/4.5.1/../../../../pic32mx/lib\libmchp_peripheral_32MX460F512L.a(int_restore_interrupts_lib.o)
 .reginfo       0x00000000       0x18 c:/program files/microchip/mplabc32/v2.02/bin/../lib/gcc/pic32mx/4.5.1/../../../../pic32mx/lib\libmchp_peripheral_32MX460F512L.a(int_enable_mv_int_lib.o)
 .pdr           0x00000000       0x20 c:/program files/microchip/mplabc32/v2.02/bin/../lib/gcc/pic32mx/4.5.1/../../../../pic32mx/lib\libmchp_peripheral_32MX460F512L.a(int_enable_mv_int_lib.o)
 .reginfo       0x00000000       0x18 c:/program files/microchip/mplabc32/v2.02/bin/../lib/gcc/pic32mx/4.5.1/../../../../pic32mx/lib\libmchp_peripheral_32MX460F512L.a(uart_lib.o)
 .pdr           0x00000000      0x100 c:/program files/microchip/mplabc32/v2.02/bin/../lib/gcc/pic32mx/4.5.1/../../../../pic32mx/lib\libmchp_peripheral_32MX460F512L.a(uart_lib.o)
 .reginfo       0x00000000       0x18 c:/program files/microchip/mplabc32/v2.02/bin/../lib/gcc/pic32mx/4.5.1/../../../../pic32mx/lib\libmchp_peripheral_32MX460F512L.a(int_enable_interrupts_lib.o)
 .pdr           0x00000000       0x20 c:/program files/microchip/mplabc32/v2.02/bin/../lib/gcc/pic32mx/4.5.1/../../../../pic32mx/lib\libmchp_peripheral_32MX460F512L.a(int_enable_interrupts_lib.o)

Memory Configuration

Name             Origin             Length             Attributes
exception_mem    0x9d006000         0x00001000
kseg0_boot_mem   0x9d007000         0x00000970
kseg1_boot_mem   0x9d007970         0x00000490
kseg0_program_mem 0x9d007e00         0x00078200         xr
debug_exec_mem   0xbfc02000         0x00000ff0
config3          0xbfc02ff0         0x00000004
config2          0xbfc02ff4         0x00000004
config1          0xbfc02ff8         0x00000004
config0          0xbfc02ffc         0x00000004
kseg1_data_mem   0xa0000000         0x00008000         w !x
sfrs             0xbf800000         0x00100000
configsfrs       0xbfc02ff0         0x00000010
*default*        0x00000000         0xffffffff

Linker script and memory map

LOAD c:/program files/microchip/mplabc32/v2.02/bin/../lib/gcc/pic32mx/4.5.1/../../../../pic32mx/lib/crt0.o
LOAD build/default/production/_ext/1954962658/Announce.o
LOAD build/default/production/_ext/1954962658/ARCFOUR.o
LOAD build/default/production/_ext/1954962658/ARP.o
LOAD build/default/production/_ext/1954962658/AutoIP.o
LOAD build/default/production/_ext/1954962658/BerkeleyAPI.o
LOAD build/default/production/_ext/1954962658/BigInt.o
LOAD build/default/production/_ext/1954962658/Delay.o
LOAD build/default/production/_ext/1954962658/DHCP.o
LOAD build/default/production/_ext/1954962658/DHCPs.o
LOAD build/default/production/_ext/1954962658/DNS.o
LOAD build/default/production/_ext/1954962658/DNSs.o
LOAD build/default/production/_ext/1954962658/DynDNS.o
LOAD build/default/production/_ext/1954962658/ENC28J60.o
LOAD build/default/production/_ext/1954962658/ENCX24J600.o
LOAD build/default/production/_ext/1954962658/FileSystem.o
LOAD build/default/production/_ext/1954962658/FTP.o
LOAD build/default/production/_ext/1954962658/Hashes.o
LOAD build/default/production/_ext/1954962658/Helpers.o
LOAD build/default/production/_ext/1954962658/HTTP2.o
LOAD build/default/production/_ext/1954962658/ICMP.o
LOAD build/default/production/_ext/1954962658/IP.o
LOAD build/default/production/_ext/1954962658/LCDBlocking.o
LOAD build/default/production/_ext/1954962658/MPFS2.o
LOAD build/default/production/_ext/1954962658/NBNS.o
LOAD build/default/production/_ext/1954962658/Random.o
LOAD build/default/production/_ext/1954962658/Reboot.o
LOAD build/default/production/_ext/1954962658/RSA.o
LOAD build/default/production/_ext/1954962658/SMTP.o
LOAD build/default/production/_ext/1954962658/SNMP.o
LOAD build/default/production/_ext/1954962658/SNMPv3.o
LOAD build/default/production/_ext/1954962658/SNMPv3USM.o
LOAD build/default/production/_ext/1954962658/SNTP.o
LOAD build/default/production/_ext/1954962658/SPIEEPROM.o
LOAD build/default/production/_ext/1954962658/SPIFlash.o
LOAD build/default/production/_ext/1954962658/SPIRAM.o
LOAD build/default/production/_ext/1954962658/SSL.o
LOAD build/default/production/_ext/1954962658/StackTsk.o
LOAD build/default/production/_ext/1954962658/TCP.o
LOAD build/default/production/_ext/1954962658/TCPPerformanceTest.o
LOAD build/default/production/_ext/1954962658/Telnet.o
LOAD build/default/production/_ext/1954962658/TFTPc.o
LOAD build/default/production/_ext/1954962658/Tick.o
LOAD build/default/production/_ext/1954962658/UART2TCPBridge.o
LOAD build/default/production/_ext/1954962658/UART.o
LOAD build/default/production/_ext/1954962658/UDP.o
LOAD build/default/production/_ext/1954962658/UDPPerformanceTest.o
LOAD build/default/production/_ext/1954962658/ZeroconfHelper.o
LOAD build/default/production/_ext/1954962658/ZeroconfLinkLocal.o
LOAD build/default/production/_ext/1954962658/ZeroconfMulticastDNS.o
LOAD build/default/production/_ext/1472/CustomHTTPApp.o
LOAD build/default/production/_ext/1472/CustomSNMPApp.o
LOAD build/default/production/_ext/1472/CustomSSLCert.o
LOAD build/default/production/_ext/1472/MainDemo.o
LOAD build/default/production/_ext/1472/BerkeleyTCPClientDemo.o
LOAD build/default/production/_ext/1472/BerkeleyTCPServerDemo.o
LOAD build/default/production/_ext/1472/BerkeleyUDPClientDemo.o
LOAD build/default/production/_ext/1472/GenericTCPClient.o
LOAD build/default/production/_ext/1472/GenericTCPServer.o
LOAD build/default/production/_ext/1472/PingDemo.o
LOAD build/default/production/_ext/1472/SMTPDemo.o
LOAD build/default/production/_ext/1472/UARTConfig.o
LOAD build/default/production/_ext/1472/MPFSImg2.o
LOAD build/default/production/_ext/1954962658/BigInt_helper_C32.o
                0x00000001                __MPLAB_BUILD = 0x1
                0x00000400                PROVIDE (_min_stack_size, 0x400)
                0x00000000                PROVIDE (_min_heap_size, 0x0)
LOAD c:/program files/microchip/mplabc32/v2.02/bin/../lib/gcc/pic32mx/4.5.1/../../../../pic32mx/lib/./proc/32MX460F512L\processor.o
                0x00000001                PROVIDE (_vector_spacing, 0x1)
                0x9d006000                _ebase_address = 0x9d006000
                0x9d007970                _RESET_ADDR = 0x9d007970
                0x9d007cf0                _BEV_EXCPT_ADDR = 0x9d007cf0
                0x9d007df0                _DBG_EXCPT_ADDR = 0x9d007df0
                0xbfc02000                _DBG_CODE_ADDR = 0xbfc02000
                0x00000ff0                _DBG_CODE_SIZE = 0xff0
                0x9d006180                _GEN_EXCPT_ADDR = (_ebase_address + 0x180)

.config_BFC02FF0
 *(.config_BFC02FF0)

.config_BFC02FF4
                0xbfc02ff4        0x4
 *(.config_BFC02FF4)
 .config_BFC02FF4
                0xbfc02ff4        0x4 build/default/production/_ext/1472/MainDemo.o

.config_BFC02FF8
                0xbfc02ff8        0x4
 *(.config_BFC02FF8)
 .config_BFC02FF8
                0xbfc02ff8        0x4 build/default/production/_ext/1472/MainDemo.o

.config_BFC02FFC
                0xbfc02ffc        0x4
 *(.config_BFC02FFC)
 .config_BFC02FFC
                0xbfc02ffc        0x4 build/default/production/_ext/1472/MainDemo.o
                0xbfc02000                PROVIDE (_DBG_CODE_ADDR, 0xbfc02000)
                0x00000ff0                PROVIDE (_DBG_CODE_SIZE, 0xff0)

.reset          0x9d007970      0x1f4
 *(.reset)
 .reset         0x9d007970       0x10 c:/program files/microchip/mplabc32/v2.02/bin/../lib/gcc/pic32mx/4.5.1/../../../../pic32mx/lib/crt0.o
                0x9d007970                _reset
 *(.reset.startup)
 .reset.startup
                0x9d007980      0x1e4 c:/program files/microchip/mplabc32/v2.02/bin/../lib/gcc/pic32mx/4.5.1/../../../../pic32mx/lib/crt0.o

.bev_excpt      0x9d007cf0       0x10
 *(.bev_handler)
 .bev_handler   0x9d007cf0       0x10 c:/program files/microchip/mplabc32/v2.02/bin/../lib/gcc/pic32mx/4.5.1/../../../../pic32mx/lib/crt0.o

.dbg_excpt      0x9d007df0        0x0
                0x9d007df0                . = (. + DEFINED (_DEBUGGER)?0x8:0x0)

.dbg_code       0xbfc02000        0x0
                0xbfc02000                . = (. + DEFINED (_DEBUGGER)?_DBG_CODE_SIZE:0x0)

.app_excpt      0x9d006180       0x10
 *(.gen_handler)
 .gen_handler   0x9d006180       0x10 c:/program files/microchip/mplabc32/v2.02/bin/../lib/gcc/pic32mx/4.5.1/../../../../pic32mx/lib/crt0.o

.vector_0       0x9d006200        0x0
 *(.vector_0)
                0x00000001                ASSERT (((_vector_spacing == 0x0) || (SIZEOF (.vector_0) <= (_vector_spacing << 0x5))), function at exception vector 0 too large)

.vector_1       0x9d006220        0x0
 *(.vector_1)
                0x00000001                ASSERT (((_vector_spacing == 0x0) || (SIZEOF (.vector_1) <= (_vector_spacing << 0x5))), function at exception vector 1 too large)

.vector_2       0x9d006240        0x0
 *(.vector_2)
                0x00000001                ASSERT (((_vector_spacing == 0x0) || (SIZEOF (.vector_2) <= (_vector_spacing << 0x5))), function at exception vector 2 too large)

.vector_3       0x9d006260        0x0
 *(.vector_3)
                0x00000001                ASSERT (((_vector_spacing == 0x0) || (SIZEOF (.vector_3) <= (_vector_spacing << 0x5))), function at exception vector 3 too large)

.vector_4       0x9d006280        0x8
 *(.vector_4)
 .vector_4      0x9d006280        0x8 build/default/production/_ext/1954962658/Tick.o
                0x00000001                ASSERT (((_vector_spacing == 0x0) || (SIZEOF (.vector_4) <= (_vector_spacing << 0x5))), function at exception vector 4 too large)

.vector_5       0x9d0062a0        0x0
 *(.vector_5)
                0x00000001                ASSERT (((_vector_spacing == 0x0) || (SIZEOF (.vector_5) <= (_vector_spacing << 0x5))), function at exception vector 5 too large)

.vector_6       0x9d0062c0        0x0
 *(.vector_6)
                0x00000001                ASSERT (((_vector_spacing == 0x0) || (SIZEOF (.vector_6) <= (_vector_spacing << 0x5))), function at exception vector 6 too large)

.vector_7       0x9d0062e0        0x0
 *(.vector_7)
                0x00000001                ASSERT (((_vector_spacing == 0x0) || (SIZEOF (.vector_7) <= (_vector_spacing << 0x5))), function at exception vector 7 too large)

.vector_8       0x9d006300        0x0
 *(.vector_8)
                0x00000001                ASSERT (((_vector_spacing == 0x0) || (SIZEOF (.vector_8) <= (_vector_spacing << 0x5))), function at exception vector 8 too large)

.vector_9       0x9d006320        0x0
 *(.vector_9)
                0x00000001                ASSERT (((_vector_spacing == 0x0) || (SIZEOF (.vector_9) <= (_vector_spacing << 0x5))), function at exception vector 9 too large)

.vector_10      0x9d006340        0x0
 *(.vector_10)
                0x00000001                ASSERT (((_vector_spacing == 0x0) || (SIZEOF (.vector_10) <= (_vector_spacing << 0x5))), function at exception vector 10 too large)

.vector_11      0x9d006360        0x0
 *(.vector_11)
                0x00000001                ASSERT (((_vector_spacing == 0x0) || (SIZEOF (.vector_11) <= (_vector_spacing << 0x5))), function at exception vector 11 too large)

.vector_12      0x9d006380        0x0
 *(.vector_12)
                0x00000001                ASSERT (((_vector_spacing == 0x0) || (SIZEOF (.vector_12) <= (_vector_spacing << 0x5))), function at exception vector 12 too large)

.vector_13      0x9d0063a0        0x0
 *(.vector_13)
                0x00000001                ASSERT (((_vector_spacing == 0x0) || (SIZEOF (.vector_13) <= (_vector_spacing << 0x5))), function at exception vector 13 too large)

.vector_14      0x9d0063c0        0x0
 *(.vector_14)
                0x00000001                ASSERT (((_vector_spacing == 0x0) || (SIZEOF (.vector_14) <= (_vector_spacing << 0x5))), function at exception vector 14 too large)

.vector_15      0x9d0063e0        0x0
 *(.vector_15)
                0x00000001                ASSERT (((_vector_spacing == 0x0) || (SIZEOF (.vector_15) <= (_vector_spacing << 0x5))), function at exception vector 15 too large)

.vector_16      0x9d006400        0x0
 *(.vector_16)
                0x00000001                ASSERT (((_vector_spacing == 0x0) || (SIZEOF (.vector_16) <= (_vector_spacing << 0x5))), function at exception vector 16 too large)

.vector_17      0x9d006420        0x0
 *(.vector_17)
                0x00000001                ASSERT (((_vector_spacing == 0x0) || (SIZEOF (.vector_17) <= (_vector_spacing << 0x5))), function at exception vector 17 too large)

.vector_18      0x9d006440        0x0
 *(.vector_18)
                0x00000001                ASSERT (((_vector_spacing == 0x0) || (SIZEOF (.vector_18) <= (_vector_spacing << 0x5))), function at exception vector 18 too large)

.vector_19      0x9d006460        0x0
 *(.vector_19)
                0x00000001                ASSERT (((_vector_spacing == 0x0) || (SIZEOF (.vector_19) <= (_vector_spacing << 0x5))), function at exception vector 19 too large)

.vector_20      0x9d006480        0x0
 *(.vector_20)
                0x00000001                ASSERT (((_vector_spacing == 0x0) || (SIZEOF (.vector_20) <= (_vector_spacing << 0x5))), function at exception vector 20 too large)

.vector_21      0x9d0064a0        0x0
 *(.vector_21)
                0x00000001                ASSERT (((_vector_spacing == 0x0) || (SIZEOF (.vector_21) <= (_vector_spacing << 0x5))), function at exception vector 21 too large)

.vector_22      0x9d0064c0        0x0
 *(.vector_22)
                0x00000001                ASSERT (((_vector_spacing == 0x0) || (SIZEOF (.vector_22) <= (_vector_spacing << 0x5))), function at exception vector 22 too large)

.vector_23      0x9d0064e0        0x0
 *(.vector_23)
                0x00000001                ASSERT (((_vector_spacing == 0x0) || (SIZEOF (.vector_23) <= (_vector_spacing << 0x5))), function at exception vector 23 too large)

.vector_24      0x9d006500        0x0
 *(.vector_24)
                0x00000001                ASSERT (((_vector_spacing == 0x0) || (SIZEOF (.vector_24) <= (_vector_spacing << 0x5))), function at exception vector 24 too large)

.vector_25      0x9d006520        0x0
 *(.vector_25)
                0x00000001                ASSERT (((_vector_spacing == 0x0) || (SIZEOF (.vector_25) <= (_vector_spacing << 0x5))), function at exception vector 25 too large)

.vector_26      0x9d006540        0x0
 *(.vector_26)
                0x00000001                ASSERT (((_vector_spacing == 0x0) || (SIZEOF (.vector_26) <= (_vector_spacing << 0x5))), function at exception vector 26 too large)

.vector_27      0x9d006560        0x0
 *(.vector_27)
                0x00000001                ASSERT (((_vector_spacing == 0x0) || (SIZEOF (.vector_27) <= (_vector_spacing << 0x5))), function at exception vector 27 too large)

.vector_28      0x9d006580        0x0
 *(.vector_28)
                0x00000001                ASSERT (((_vector_spacing == 0x0) || (SIZEOF (.vector_28) <= (_vector_spacing << 0x5))), function at exception vector 28 too large)

.vector_29      0x9d0065a0        0x0
 *(.vector_29)
                0x00000001                ASSERT (((_vector_spacing == 0x0) || (SIZEOF (.vector_29) <= (_vector_spacing << 0x5))), function at exception vector 29 too large)

.vector_30      0x9d0065c0        0x0
 *(.vector_30)
                0x00000001                ASSERT (((_vector_spacing == 0x0) || (SIZEOF (.vector_30) <= (_vector_spacing << 0x5))), function at exception vector 30 too large)

.vector_31      0x9d0065e0        0x0
 *(.vector_31)
                0x00000001                ASSERT (((_vector_spacing == 0x0) || (SIZEOF (.vector_31) <= (_vector_spacing << 0x5))), function at exception vector 31 too large)

.vector_32      0x9d006600        0x0
 *(.vector_32)
                0x00000001                ASSERT (((_vector_spacing == 0x0) || (SIZEOF (.vector_32) <= (_vector_spacing << 0x5))), function at exception vector 32 too large)

.vector_33      0x9d006620        0x0
 *(.vector_33)
                0x00000001                ASSERT (((_vector_spacing == 0x0) || (SIZEOF (.vector_33) <= (_vector_spacing << 0x5))), function at exception vector 33 too large)

.vector_34      0x9d006640        0x0
 *(.vector_34)
                0x00000001                ASSERT (((_vector_spacing == 0x0) || (SIZEOF (.vector_34) <= (_vector_spacing << 0x5))), function at exception vector 34 too large)

.vector_35      0x9d006660        0x0
 *(.vector_35)
                0x00000001                ASSERT (((_vector_spacing == 0x0) || (SIZEOF (.vector_35) <= (_vector_spacing << 0x5))), function at exception vector 35 too large)

.vector_36      0x9d006680        0x0
 *(.vector_36)
                0x00000001                ASSERT (((_vector_spacing == 0x0) || (SIZEOF (.vector_36) <= (_vector_spacing << 0x5))), function at exception vector 36 too large)

.vector_37      0x9d0066a0        0x0
 *(.vector_37)
                0x00000001                ASSERT (((_vector_spacing == 0x0) || (SIZEOF (.vector_37) <= (_vector_spacing << 0x5))), function at exception vector 37 too large)

.vector_38      0x9d0066c0        0x0
 *(.vector_38)
                0x00000001                ASSERT (((_vector_spacing == 0x0) || (SIZEOF (.vector_38) <= (_vector_spacing << 0x5))), function at exception vector 38 too large)

.vector_39      0x9d0066e0        0x0
 *(.vector_39)
                0x00000001                ASSERT (((_vector_spacing == 0x0) || (SIZEOF (.vector_39) <= (_vector_spacing << 0x5))), function at exception vector 39 too large)

.vector_40      0x9d006700        0x0
 *(.vector_40)
                0x00000001                ASSERT (((_vector_spacing == 0x0) || (SIZEOF (.vector_40) <= (_vector_spacing << 0x5))), function at exception vector 40 too large)

.vector_41      0x9d006720        0x0
 *(.vector_41)
                0x00000001                ASSERT (((_vector_spacing == 0x0) || (SIZEOF (.vector_41) <= (_vector_spacing << 0x5))), function at exception vector 41 too large)

.vector_42      0x9d006740        0x0
 *(.vector_42)
                0x00000001                ASSERT (((_vector_spacing == 0x0) || (SIZEOF (.vector_42) <= (_vector_spacing << 0x5))), function at exception vector 42 too large)

.vector_43      0x9d006760        0x0
 *(.vector_43)
                0x00000001                ASSERT (((_vector_spacing == 0x0) || (SIZEOF (.vector_43) <= (_vector_spacing << 0x5))), function at exception vector 43 too large)

.vector_44      0x9d006780        0x0
 *(.vector_44)
                0x00000001                ASSERT (((_vector_spacing == 0x0) || (SIZEOF (.vector_44) <= (_vector_spacing << 0x5))), function at exception vector 44 too large)

.vector_45      0x9d0067a0        0x0
 *(.vector_45)
                0x00000001                ASSERT (((_vector_spacing == 0x0) || (SIZEOF (.vector_45) <= (_vector_spacing << 0x5))), function at exception vector 45 too large)

.vector_46      0x9d0067c0        0x0
 *(.vector_46)
                0x00000001                ASSERT (((_vector_spacing == 0x0) || (SIZEOF (.vector_46) <= (_vector_spacing << 0x5))), function at exception vector 46 too large)

.vector_47      0x9d0067e0        0x0
 *(.vector_47)
                0x00000001                ASSERT (((_vector_spacing == 0x0) || (SIZEOF (.vector_47) <= (_vector_spacing << 0x5))), function at exception vector 47 too large)

.vector_48      0x9d006800        0x0
 *(.vector_48)
                0x00000001                ASSERT (((_vector_spacing == 0x0) || (SIZEOF (.vector_48) <= (_vector_spacing << 0x5))), function at exception vector 48 too large)

.vector_49      0x9d006820        0x0
 *(.vector_49)
                0x00000001                ASSERT (((_vector_spacing == 0x0) || (SIZEOF (.vector_49) <= (_vector_spacing << 0x5))), function at exception vector 49 too large)

.vector_50      0x9d006840        0x0
 *(.vector_50)
                0x00000001                ASSERT (((_vector_spacing == 0x0) || (SIZEOF (.vector_50) <= (_vector_spacing << 0x5))), function at exception vector 50 too large)

.vector_51      0x9d006860        0x0
 *(.vector_51)
                0x00000001                ASSERT (((_vector_spacing == 0x0) || (SIZEOF (.vector_51) <= (_vector_spacing << 0x5))), function at exception vector 51 too large)

.vector_52      0x9d006880        0x0
 *(.vector_52)
                0x00000001                ASSERT (((_vector_spacing == 0x0) || (SIZEOF (.vector_52) <= (_vector_spacing << 0x5))), function at exception vector 52 too large)

.vector_53      0x9d0068a0        0x0
 *(.vector_53)
                0x00000001                ASSERT (((_vector_spacing == 0x0) || (SIZEOF (.vector_53) <= (_vector_spacing << 0x5))), function at exception vector 53 too large)

.vector_54      0x9d0068c0        0x0
 *(.vector_54)
                0x00000001                ASSERT (((_vector_spacing == 0x0) || (SIZEOF (.vector_54) <= (_vector_spacing << 0x5))), function at exception vector 54 too large)

.vector_55      0x9d0068e0        0x0
 *(.vector_55)
                0x00000001                ASSERT (((_vector_spacing == 0x0) || (SIZEOF (.vector_55) <= (_vector_spacing << 0x5))), function at exception vector 55 too large)

.vector_56      0x9d006900        0x0
 *(.vector_56)
                0x00000001                ASSERT (((_vector_spacing == 0x0) || (SIZEOF (.vector_56) <= (_vector_spacing << 0x5))), function at exception vector 56 too large)

.vector_57      0x9d006920        0x0
 *(.vector_57)
                0x00000001                ASSERT (((_vector_spacing == 0x0) || (SIZEOF (.vector_57) <= (_vector_spacing << 0x5))), function at exception vector 57 too large)

.vector_58      0x9d006940        0x0
 *(.vector_58)
                0x00000001                ASSERT (((_vector_spacing == 0x0) || (SIZEOF (.vector_58) <= (_vector_spacing << 0x5))), function at exception vector 58 too large)

.vector_59      0x9d006960        0x0
 *(.vector_59)
                0x00000001                ASSERT (((_vector_spacing == 0x0) || (SIZEOF (.vector_59) <= (_vector_spacing << 0x5))), function at exception vector 59 too large)

.vector_60      0x9d006980        0x0
 *(.vector_60)
                0x00000001                ASSERT (((_vector_spacing == 0x0) || (SIZEOF (.vector_60) <= (_vector_spacing << 0x5))), function at exception vector 60 too large)

.vector_61      0x9d0069a0        0x0
 *(.vector_61)
                0x00000001                ASSERT (((_vector_spacing == 0x0) || (SIZEOF (.vector_61) <= (_vector_spacing << 0x5))), function at exception vector 61 too large)

.vector_62      0x9d0069c0        0x0
 *(.vector_62)
                0x00000001                ASSERT (((_vector_spacing == 0x0) || (SIZEOF (.vector_62) <= (_vector_spacing << 0x5))), function at exception vector 62 too large)

.vector_63      0x9d0069e0        0x0
 *(.vector_63)
                0x00000001                ASSERT (((_vector_spacing == 0x0) || (SIZEOF (.vector_63) <= (_vector_spacing << 0x5))), function at exception vector 63 too large)

.startup
 *(.startup)

.text
 *(.stub .gnu.linkonce.t.*)
 *(.text.*personality*)
 *(.mips16.fn.*)
 *(.mips16.call.*)
 *(.gnu.warning)

.rodata         0x9d007e00        0x0
 *(.rodata.* .gnu.linkonce.r.*)
 *(.rodata1)
                0x9d007e00                . = ALIGN (0x4)

.sdata2         0x9d007000        0x0
 *(.sdata2 .sdata2.* .gnu.linkonce.s2.*)
                0x9d007000                . = ALIGN (0x4)

.sbss2          0x9d007000        0x0
 *(.sbss2 .sbss2.* .gnu.linkonce.sb2.*)
                0x9d007000                . = ALIGN (0x4)

.eh_frame_hdr
 *(.eh_frame_hdr)

.eh_frame
 *(.eh_frame)

.dbg_data       0xa0000000        0x0
                0xa0000000                . = (. + DEFINED (_DEBUGGER)?0x200:0x0)

.persist        0xa0000000        0x0
                0xa0000000                _persist_begin = .
 *(.persist .persist.*)
                0xa0000000                . = ALIGN (0x4)
                0xa0000000                _persist_end = .

.eh_frame       0xa0000000       0x28
 *(.eh_frame)
 .eh_frame      0xa0000000       0x28 c:/program files/microchip/mplabc32/v2.02/bin/../lib/gcc/pic32mx/4.5.1\libgcc.a(_udivdi3.o)
                0xa0000028                . = .
                0xa0008020                _gp = (ALIGN (0x10) + 0x7ff0)

.got
 *(.got.plt)
 *(.got)

.sdata          0xa0000028       0x2c
                0xa0000028                _sdata_begin = .
 *(.sdata .sdata.* .gnu.linkonce.s.*)
 .sdata         0xa0000028        0x2 build/default/production/_ext/1954962658/BerkeleyAPI.o
 *fill*         0xa000002a        0x2 00
 .sdata         0xa000002c        0x4 build/default/production/_ext/1954962658/DHCPs.o
                0xa000002c                bDHCPServerEnabled
 .sdata         0xa0000030        0x8 build/default/production/_ext/1954962658/DNS.o
 .sdata         0xa0000038        0x4 build/default/production/_ext/1954962658/Helpers.o
 .sdata         0xa000003c        0x1 build/default/production/_ext/1954962658/Reboot.o
 .sdata         0xa000003d        0x1 build/default/production/_ext/1954962658/SMTP.o
 .sdata         0xa000003e        0x2 build/default/production/_ext/1954962658/TCP.o
 .sdata         0xa0000040        0x2 build/default/production/_ext/1954962658/TCPPerformanceTest.o
 .sdata         0xa0000042        0x2 build/default/production/_ext/1954962658/UDP.o
 .sdata         0xa0000044        0x4 build/default/production/_ext/1472/BerkeleyTCPClientDemo.o
 .sdata         0xa0000048        0xc build/default/production/_ext/1472/GenericTCPClient.o
                0xa0000054                _sdata_end = .

.lit8
 *(.lit8)

.lit4
 *(.lit4)
                0xa0000054                . = ALIGN (0x4)
                0xa0000054                _data_end = .
                0xa0000054                _bss_begin = .

.sbss           0xa0000054      0x164
                0xa0000054                _sbss_begin = .
 *(.dynsbss)
 *(.sbss .sbss.* .gnu.linkonce.sb.*)
 .sbss          0xa0000054        0x8 build/default/production/_ext/1954962658/Announce.o
 .sbss          0xa000005c        0x4 build/default/production/_ext/1954962658/ARP.o
 .sbss          0xa0000060        0x4 build/default/production/_ext/1954962658/BerkeleyAPI.o
 .sbss          0xa0000064        0x4 build/default/production/_ext/1954962658/DHCP.o
                0xa0000064                DHCPClientInitializedOnce
 .sbss          0xa0000068        0xc build/default/production/_ext/1954962658/DHCPs.o
 .sbss          0xa0000074       0x18 build/default/production/_ext/1954962658/DNS.o
 .sbss          0xa000008c       0x10 build/default/production/_ext/1954962658/ENC28J60.o
 .sbss          0xa000009c       0x10 build/default/production/_ext/1954962658/ICMP.o
 .sbss          0xa00000ac        0x4 build/default/production/_ext/1954962658/IP.o
 .sbss          0xa00000b0        0x8 build/default/production/_ext/1954962658/MPFS2.o
 .sbss          0xa00000b8        0x8 build/default/production/_ext/1954962658/NBNS.o
 .sbss          0xa00000c0       0x34 build/default/production/_ext/1954962658/SMTP.o
 .sbss          0xa00000f4       0x14 build/default/production/_ext/1954962658/SNTP.o
 .sbss          0xa0000108        0x8 build/default/production/_ext/1954962658/StackTsk.o
 .sbss          0xa0000110        0x2 build/default/production/_ext/1954962658/TCP.o
 *fill*         0xa0000112        0x2 00
 .sbss          0xa0000114       0x14 build/default/production/_ext/1954962658/TCPPerformanceTest.o
 .sbss          0xa0000128       0x10 build/default/production/_ext/1954962658/Telnet.o
 .sbss          0xa0000138        0xc build/default/production/_ext/1954962658/Tick.o
 .sbss          0xa0000144        0x8 build/default/production/_ext/1954962658/UDP.o
 .sbss          0xa000014c       0x10 build/default/production/_ext/1472/CustomHTTPApp.o
 .sbss          0xa000015c        0xc build/default/production/_ext/1472/MainDemo.o
 .sbss          0xa0000168        0x1 build/default/production/_ext/1472/BerkeleyTCPClientDemo.o
 *fill*         0xa0000169        0x3 00
 .sbss          0xa000016c        0x8 build/default/production/_ext/1472/BerkeleyTCPServerDemo.o
 .sbss          0xa0000174       0x18 build/default/production/_ext/1472/BerkeleyUDPClientDemo.o
 .sbss          0xa000018c        0x4 build/default/production/_ext/1472/GenericTCPClient.o
 .sbss          0xa0000190        0x8 build/default/production/_ext/1472/GenericTCPServer.o
 .sbss          0xa0000198        0x8 build/default/production/_ext/1472/PingDemo.o
 .sbss          0xa00001a0        0x8 build/default/production/_ext/1472/SMTPDemo.o
 *(.scommon)
 .scommon       0xa00001a8        0x1 build/default/production/_ext/1954962658/HTTP2.o
                0xa00001a8                curHTTPID
 *fill*         0xa00001a9        0x1 00
 .scommon       0xa00001aa        0x6 build/default/production/_ext/1954962658/UDP.o
                0xa00001aa                UDPTxCount
                0xa00001ac                activeUDPSocket
                0xa00001ae                UDPRxCount
 .scommon       0xa00001b0        0x8 build/default/production/_ext/1472/MainDemo.o
                0xa00001b0                AN0String
                0xa00001b8                _sbss_end = .

.bss            0xa00001b8      0x1b8
 *(.dynbss)
 *(COMMON)
 COMMON         0xa00001b8       0x40 build/default/production/_ext/1954962658/Hashes.o
                0xa00001b8                lastBlock
 COMMON         0xa00001f8       0x9c build/default/production/_ext/1954962658/HTTP2.o
                0xa00001f8                curHTTP
                0xa0000284                httpStubs
 COMMON         0xa0000294       0x2c build/default/production/_ext/1954962658/SMTP.o
                0xa0000294                SMTPClient
 COMMON         0xa00002c0        0xa build/default/production/_ext/1954962658/StackTsk.o
                0xa00002c0                remoteNode
 *fill*         0xa00002ca        0x2 00
 COMMON         0xa00002cc       0x70 build/default/production/_ext/1954962658/UDP.o
                0xa00002cc                UDPSocketInfo
 COMMON         0xa000033c       0x33 build/default/production/_ext/1472/MainDemo.o
                0xa000033c                AppConfig
                0xa0000370                . = ALIGN (0x4)
 *fill*         0xa000036f        0x1 00
                0xa0000370                . = ALIGN (0x4)
                0xa0000370                _end = .
                0xa0000370                _bss_end = .
                0x00008000                _bmxdudba_address = 0x8000
                0x00008000                _bmxdupba_address = 0x8000

/DISCARD/
 *(.pdr)
 *(.reginfo)
 *(.rel.dyn)
 *(.note.GNU-stack)
 *(.note.GNU-stack)
 *(.gnu_debuglink)
 *(.gnu.lto_*)
 *(.discard)

.stab
 *(.stab)

.stabstr
 *(.stabstr)

.stab.excl
 *(.stab.excl)

.stab.exclstr
 *(.stab.exclstr)

.stab.index
 *(.stab.index)

.stab.indexstr
 *(.stab.indexstr)

.comment        0x00000000      0x244
 *(.comment)
 .comment       0x00000000       0x51 build/default/production/_ext/1954962658/Announce.o
                                 0x52 (size before relaxing)
 .comment       0x00000000       0x52 build/default/production/_ext/1954962658/ARCFOUR.o
 .comment       0x00000000       0x52 build/default/production/_ext/1954962658/ARP.o
 .comment       0x00000000       0x52 build/default/production/_ext/1954962658/AutoIP.o
 .comment       0x00000000       0x52 build/default/production/_ext/1954962658/BerkeleyAPI.o
 .comment       0x00000000       0x52 build/default/production/_ext/1954962658/BigInt.o
 .comment       0x00000000       0x52 build/default/production/_ext/1954962658/Delay.o
 .comment       0x00000000       0x52 build/default/production/_ext/1954962658/DHCP.o
 .comment       0x00000000       0x52 build/default/production/_ext/1954962658/DHCPs.o
 .comment       0x00000000       0x52 build/default/production/_ext/1954962658/DNS.o
 .comment       0x00000000       0x52 build/default/production/_ext/1954962658/DNSs.o
 .comment       0x00000000       0x52 build/default/production/_ext/1954962658/DynDNS.o
 .comment       0x00000000       0x52 build/default/production/_ext/1954962658/ENC28J60.o
 .comment       0x00000000       0x52 build/default/production/_ext/1954962658/ENCX24J600.o
 .comment       0x00000000       0x52 build/default/production/_ext/1954962658/FileSystem.o
 .comment       0x00000000       0x52 build/default/production/_ext/1954962658/FTP.o
 .comment       0x00000000       0x52 build/default/production/_ext/1954962658/Hashes.o
 .comment       0x00000000       0x52 build/default/production/_ext/1954962658/Helpers.o
 .comment       0x00000000       0x52 build/default/production/_ext/1954962658/HTTP2.o
 .comment       0x00000000       0x52 build/default/production/_ext/1954962658/ICMP.o
 .comment       0x00000000       0x52 build/default/production/_ext/1954962658/IP.o
 .comment       0x00000000       0x52 build/default/production/_ext/1954962658/LCDBlocking.o
 .comment       0x00000000       0x52 build/default/production/_ext/1954962658/MPFS2.o
 .comment       0x00000000       0x52 build/default/production/_ext/1954962658/NBNS.o
 .comment       0x00000000       0x52 build/default/production/_ext/1954962658/Random.o
 .comment       0x00000000       0x52 build/default/production/_ext/1954962658/Reboot.o
 .comment       0x00000000       0x52 build/default/production/_ext/1954962658/RSA.o
 .comment       0x00000000       0x52 build/default/production/_ext/1954962658/SMTP.o
 .comment       0x00000000       0x52 build/default/production/_ext/1954962658/SNMP.o
 .comment       0x00000000       0x52 build/default/production/_ext/1954962658/SNMPv3.o
 .comment       0x00000000       0x52 build/default/production/_ext/1954962658/SNMPv3USM.o
 .comment       0x00000000       0x52 build/default/production/_ext/1954962658/SNTP.o
 .comment       0x00000000       0x52 build/default/production/_ext/1954962658/SPIEEPROM.o
 .comment       0x00000000       0x52 build/default/production/_ext/1954962658/SPIFlash.o
 .comment       0x00000000       0x52 build/default/production/_ext/1954962658/SPIRAM.o
 .comment       0x00000000       0x52 build/default/production/_ext/1954962658/SSL.o
 .comment       0x00000000       0x52 build/default/production/_ext/1954962658/StackTsk.o
 .comment       0x00000000       0x52 build/default/production/_ext/1954962658/TCP.o
 .comment       0x00000000       0x52 build/default/production/_ext/1954962658/TCPPerformanceTest.o
 .comment       0x00000000       0x52 build/default/production/_ext/1954962658/Telnet.o
 .comment       0x00000000       0x52 build/default/production/_ext/1954962658/TFTPc.o
 .comment       0x00000000       0x52 build/default/production/_ext/1954962658/Tick.o
 .comment       0x00000000       0x52 build/default/production/_ext/1954962658/UART2TCPBridge.o
 .comment       0x00000000       0x52 build/default/production/_ext/1954962658/UART.o
 .comment       0x00000000       0x52 build/default/production/_ext/1954962658/UDP.o
 .comment       0x00000000       0x52 build/default/production/_ext/1954962658/UDPPerformanceTest.o
 .comment       0x00000000       0x52 build/default/production/_ext/1954962658/ZeroconfHelper.o
 .comment       0x00000000       0x52 build/default/production/_ext/1954962658/ZeroconfLinkLocal.o
 .comment       0x00000000       0x52 build/default/production/_ext/1954962658/ZeroconfMulticastDNS.o
 .comment       0x00000000       0x52 build/default/production/_ext/1472/CustomHTTPApp.o
 .comment       0x00000000       0x52 build/default/production/_ext/1472/CustomSNMPApp.o
 .comment       0x00000000       0x52 build/default/production/_ext/1472/CustomSSLCert.o
 .comment       0x00000000       0x52 build/default/production/_ext/1472/MainDemo.o
 .comment       0x00000000       0x52 build/default/production/_ext/1472/BerkeleyTCPClientDemo.o
 .comment       0x00000000       0x52 build/default/production/_ext/1472/BerkeleyTCPServerDemo.o
 .comment       0x00000000       0x52 build/default/production/_ext/1472/BerkeleyUDPClientDemo.o
 .comment       0x00000000       0x52 build/default/production/_ext/1472/GenericTCPClient.o
 .comment       0x00000000       0x52 build/default/production/_ext/1472/GenericTCPServer.o
 .comment       0x00000000       0x52 build/default/production/_ext/1472/PingDemo.o
 .comment       0x00000000       0x52 build/default/production/_ext/1472/SMTPDemo.o
 .comment       0x00000000       0x52 build/default/production/_ext/1472/UARTConfig.o
 .comment       0x00000000       0x52 build/default/production/_ext/1472/MPFSImg2.o
 .comment       0x00000000       0x52 c:/program files/microchip/mplabc32/v2.02/bin/../lib/gcc/pic32mx/4.5.1\libgcc.a(_udivdi3.o)
 .comment       0x00000051       0x55 c:/program files/microchip/mplabc32/v2.02/bin/../lib/gcc/pic32mx/4.5.1/../../../../pic32mx/lib\libc.a(memcmp.o)
                                 0x56 (size before relaxing)
 .comment       0x000000a6       0x55 c:/program files/microchip/mplabc32/v2.02/bin/../lib/gcc/pic32mx/4.5.1/../../../../pic32mx/lib\libc.a(memset.o)
                                 0x56 (size before relaxing)
 .comment       0x000000fb       0x55 c:/program files/microchip/mplabc32/v2.02/bin/../lib/gcc/pic32mx/4.5.1/../../../../pic32mx/lib\libc.a(strcmp.o)
                                 0x56 (size before relaxing)
 .comment       0x00000150       0x55 c:/program files/microchip/mplabc32/v2.02/bin/../lib/gcc/pic32mx/4.5.1/../../../../pic32mx/lib\libc.a(strlen.o)
                                 0x56 (size before relaxing)
 .comment       0x00000000       0x52 c:/program files/microchip/mplabc32/v2.02/bin/../lib/gcc/pic32mx/4.5.1/../../../../pic32mx/lib\libc.a(atoi.o)
 .comment       0x00000000       0x52 c:/program files/microchip/mplabc32/v2.02/bin/../lib/gcc/pic32mx/4.5.1/../../../../pic32mx/lib\libc.a(atol.o)
 .comment       0x000001a5       0x4e c:/program files/microchip/mplabc32/v2.02/bin/../lib/gcc/pic32mx/4.5.1/../../../../pic32mx/lib\libc.a(ctype.o)
                                 0xa0 (size before relaxing)
 .comment       0x00000000       0x52 c:/program files/microchip/mplabc32/v2.02/bin/../lib/gcc/pic32mx/4.5.1/../../../../pic32mx/lib\libc.a(strchr.o)
 .comment       0x00000000       0x52 c:/program files/microchip/mplabc32/v2.02/bin/../lib/gcc/pic32mx/4.5.1/../../../../pic32mx/lib\libc.a(strstr.o)
 .comment       0x00000000       0x52 c:/program files/microchip/mplabc32/v2.02/bin/../lib/gcc/pic32mx/4.5.1/../../../../pic32mx/lib\libc.a(default-bootstrap-exception-handler.o)
 .comment       0x00000000       0x52 c:/program files/microchip/mplabc32/v2.02/bin/../lib/gcc/pic32mx/4.5.1/../../../../pic32mx/lib\libc.a(default-on-reset.o)
 .comment       0x00000000       0x52 c:/program files/microchip/mplabc32/v2.02/bin/../lib/gcc/pic32mx/4.5.1/../../../../pic32mx/lib\libc.a(default-on-bootstrap.o)
 .comment       0x00000000       0x52 c:/program files/microchip/mplabc32/v2.02/bin/../lib/gcc/pic32mx/4.5.1/../../../../pic32mx/lib\libc.a(strncmp.o)
 .comment       0x000001f3       0x51 c:/program files/microchip/mplabc32/v2.02/bin/../lib/gcc/pic32mx/4.5.1/../../../../pic32mx/lib\libmchp_peripheral_32MX460F512L.a(soft_reset_lib.o)
                                 0x52 (size before relaxing)
 .comment       0x00000000       0x52 c:/program files/microchip/mplabc32/v2.02/bin/../lib/gcc/pic32mx/4.5.1/../../../../pic32mx/lib\libmchp_peripheral_32MX460F512L.a(pcache.o)
 .comment       0x00000000       0x52 c:/program files/microchip/mplabc32/v2.02/bin/../lib/gcc/pic32mx/4.5.1/../../../../pic32mx/lib\libmchp_peripheral_32MX460F512L.a(int_disable_interrupts_lib.o)
 .comment       0x00000000       0x52 c:/program files/microchip/mplabc32/v2.02/bin/../lib/gcc/pic32mx/4.5.1/../../../../pic32mx/lib\libmchp_peripheral_32MX460F512L.a(int_restore_interrupts_lib.o)
 .comment       0x00000000       0x52 c:/program files/microchip/mplabc32/v2.02/bin/../lib/gcc/pic32mx/4.5.1/../../../../pic32mx/lib\libmchp_peripheral_32MX460F512L.a(int_enable_mv_int_lib.o)
 .comment       0x00000000       0x52 c:/program files/microchip/mplabc32/v2.02/bin/../lib/gcc/pic32mx/4.5.1/../../../../pic32mx/lib\libmchp_peripheral_32MX460F512L.a(uart_lib.o)
 .comment       0x00000000       0x52 c:/program files/microchip/mplabc32/v2.02/bin/../lib/gcc/pic32mx/4.5.1/../../../../pic32mx/lib\libmchp_peripheral_32MX460F512L.a(int_enable_interrupts_lib.o)

.debug
 *(.debug)

.line
 *(.line)

.debug_srcinfo
 *(.debug_srcinfo)

.debug_sfnames
 *(.debug_sfnames)

.debug_aranges  0x00000000      0x6c0
 *(.debug_aranges)
 .debug_aranges
                0x00000000       0x20 build/default/production/_ext/1954962658/Announce.o
 .debug_aranges
                0x00000020       0x20 build/default/production/_ext/1954962658/ARP.o
 .debug_aranges
                0x00000040       0x20 build/default/production/_ext/1954962658/AutoIP.o
 .debug_aranges
                0x00000060       0x20 build/default/production/_ext/1954962658/BerkeleyAPI.o
 .debug_aranges
                0x00000080       0x20 build/default/production/_ext/1954962658/Delay.o
 .debug_aranges
                0x000000a0       0x20 build/default/production/_ext/1954962658/DHCP.o
 .debug_aranges
                0x000000c0       0x20 build/default/production/_ext/1954962658/DHCPs.o
 .debug_aranges
                0x000000e0       0x20 build/default/production/_ext/1954962658/DNS.o
 .debug_aranges
                0x00000100       0x20 build/default/production/_ext/1954962658/ENC28J60.o
 .debug_aranges
                0x00000120       0x20 build/default/production/_ext/1954962658/Hashes.o
 .debug_aranges
                0x00000140       0x20 build/default/production/_ext/1954962658/Helpers.o
 .debug_aranges
                0x00000160       0x20 build/default/production/_ext/1954962658/HTTP2.o
 .debug_aranges
                0x00000180       0x20 build/default/production/_ext/1954962658/ICMP.o
 .debug_aranges
                0x000001a0       0x20 build/default/production/_ext/1954962658/IP.o
 .debug_aranges
                0x000001c0       0x20 build/default/production/_ext/1954962658/MPFS2.o
 .debug_aranges
                0x000001e0       0x20 build/default/production/_ext/1954962658/NBNS.o
 .debug_aranges
                0x00000200       0x20 build/default/production/_ext/1954962658/Reboot.o
 .debug_aranges
                0x00000220       0x20 build/default/production/_ext/1954962658/SMTP.o
 .debug_aranges
                0x00000240       0x20 build/default/production/_ext/1954962658/SNTP.o
 .debug_aranges
                0x00000260       0x20 build/default/production/_ext/1954962658/StackTsk.o
 .debug_aranges
                0x00000280       0x20 build/default/production/_ext/1954962658/TCP.o
 .debug_aranges
                0x000002a0       0x20 build/default/production/_ext/1954962658/TCPPerformanceTest.o
 .debug_aranges
                0x000002c0       0x20 build/default/production/_ext/1954962658/Telnet.o
 .debug_aranges
                0x000002e0       0x20 build/default/production/_ext/1954962658/Tick.o
 .debug_aranges
                0x00000300       0x20 build/default/production/_ext/1954962658/UART.o
 .debug_aranges
                0x00000320       0x20 build/default/production/_ext/1954962658/UDP.o
 .debug_aranges
                0x00000340       0x20 build/default/production/_ext/1472/CustomHTTPApp.o
 .debug_aranges
                0x00000360       0x20 build/default/production/_ext/1472/MainDemo.o
 .debug_aranges
                0x00000380       0x20 build/default/production/_ext/1472/BerkeleyTCPClientDemo.o
 .debug_aranges
                0x000003a0       0x20 build/default/production/_ext/1472/BerkeleyTCPServerDemo.o
 .debug_aranges
                0x000003c0       0x20 build/default/production/_ext/1472/BerkeleyUDPClientDemo.o
 .debug_aranges
                0x000003e0       0x20 build/default/production/_ext/1472/GenericTCPClient.o
 .debug_aranges
                0x00000400       0x20 build/default/production/_ext/1472/GenericTCPServer.o
 .debug_aranges
                0x00000420       0x20 build/default/production/_ext/1472/PingDemo.o
 .debug_aranges
                0x00000440       0x20 build/default/production/_ext/1472/SMTPDemo.o
 .debug_aranges
                0x00000460       0x20 build/default/production/_ext/1472/UARTConfig.o
 .debug_aranges
                0x00000480       0x20 c:/program files/microchip/mplabc32/v2.02/bin/../lib/gcc/pic32mx/4.5.1\libgcc.a(_udivdi3.o)
 .debug_aranges
                0x000004a0       0x20 c:/program files/microchip/mplabc32/v2.02/bin/../lib/gcc/pic32mx/4.5.1/../../../../pic32mx/lib\libc.a(atoi.o)
 .debug_aranges
                0x000004c0       0x20 c:/program files/microchip/mplabc32/v2.02/bin/../lib/gcc/pic32mx/4.5.1/../../../../pic32mx/lib\libc.a(atol.o)
 .debug_aranges
                0x000004e0       0x20 c:/program files/microchip/mplabc32/v2.02/bin/../lib/gcc/pic32mx/4.5.1/../../../../pic32mx/lib\libc.a(strchr.o)
 .debug_aranges
                0x00000500       0x20 c:/program files/microchip/mplabc32/v2.02/bin/../lib/gcc/pic32mx/4.5.1/../../../../pic32mx/lib\libc.a(strstr.o)
 .debug_aranges
                0x00000520       0x20 c:/program files/microchip/mplabc32/v2.02/bin/../lib/gcc/pic32mx/4.5.1/../../../../pic32mx/lib\libc.a(default-bootstrap-exception-handler.o)
 .debug_aranges
                0x00000540       0x20 c:/program files/microchip/mplabc32/v2.02/bin/../lib/gcc/pic32mx/4.5.1/../../../../pic32mx/lib\libc.a(default-on-reset.o)
 .debug_aranges
                0x00000560       0x20 c:/program files/microchip/mplabc32/v2.02/bin/../lib/gcc/pic32mx/4.5.1/../../../../pic32mx/lib\libc.a(default-on-bootstrap.o)
 .debug_aranges
                0x00000580       0x20 c:/program files/microchip/mplabc32/v2.02/bin/../lib/gcc/pic32mx/4.5.1/../../../../pic32mx/lib\libc.a(strncmp.o)
 .debug_aranges
                0x000005a0       0x20 c:/program files/microchip/mplabc32/v2.02/bin/../lib/gcc/pic32mx/4.5.1/../../../../pic32mx/lib\libmchp_peripheral_32MX460F512L.a(soft_reset_lib.o)
 .debug_aranges
                0x000005c0       0x28 c:/program files/microchip/mplabc32/v2.02/bin/../lib/gcc/pic32mx/4.5.1/../../../../pic32mx/lib\libmchp_peripheral_32MX460F512L.a(pcache.o)
 .debug_aranges
                0x000005e8       0x20 c:/program files/microchip/mplabc32/v2.02/bin/../lib/gcc/pic32mx/4.5.1/../../../../pic32mx/lib\libmchp_peripheral_32MX460F512L.a(int_disable_interrupts_lib.o)
 .debug_aranges
                0x00000608       0x20 c:/program files/microchip/mplabc32/v2.02/bin/../lib/gcc/pic32mx/4.5.1/../../../../pic32mx/lib\libmchp_peripheral_32MX460F512L.a(int_restore_interrupts_lib.o)
 .debug_aranges
                0x00000628       0x20 c:/program files/microchip/mplabc32/v2.02/bin/../lib/gcc/pic32mx/4.5.1/../../../../pic32mx/lib\libmchp_peripheral_32MX460F512L.a(int_enable_mv_int_lib.o)
 .debug_aranges
                0x00000648       0x58 c:/program files/microchip/mplabc32/v2.02/bin/../lib/gcc/pic32mx/4.5.1/../../../../pic32mx/lib\libmchp_peripheral_32MX460F512L.a(uart_lib.o)
 .debug_aranges
                0x000006a0       0x20 c:/program files/microchip/mplabc32/v2.02/bin/../lib/gcc/pic32mx/4.5.1/../../../../pic32mx/lib\libmchp_peripheral_32MX460F512L.a(int_enable_interrupts_lib.o)

.debug_pubnames
                0x00000000     0x17cf
 *(.debug_pubnames)
 .debug_pubnames
                0x00000000       0x33 build/default/production/_ext/1954962658/Announce.o
 .debug_pubnames
                0x00000033       0x60 build/default/production/_ext/1954962658/ARP.o
 .debug_pubnames
                0x00000093       0xd2 build/default/production/_ext/1954962658/AutoIP.o
 .debug_pubnames
                0x00000165       0xa9 build/default/production/_ext/1954962658/BerkeleyAPI.o
 .debug_pubnames
                0x0000020e       0x2c build/default/production/_ext/1954962658/Delay.o
 .debug_pubnames
                0x0000023a       0xb9 build/default/production/_ext/1954962658/DHCP.o
 .debug_pubnames
                0x000002f3       0x3c build/default/production/_ext/1954962658/DHCPs.o
 .debug_pubnames
                0x0000032f       0x55 build/default/production/_ext/1954962658/DNS.o
 .debug_pubnames
                0x00000384      0x1b8 build/default/production/_ext/1954962658/ENC28J60.o
 .debug_pubnames
                0x0000053c       0x62 build/default/production/_ext/1954962658/Hashes.o
 .debug_pubnames
                0x0000059e      0x128 build/default/production/_ext/1954962658/Helpers.o
 .debug_pubnames
                0x000006c6       0xcf build/default/production/_ext/1954962658/HTTP2.o
 .debug_pubnames
                0x00000795       0x7f build/default/production/_ext/1954962658/ICMP.o
 .debug_pubnames
                0x00000814       0x44 build/default/production/_ext/1954962658/IP.o
 .debug_pubnames
                0x00000858      0x140 build/default/production/_ext/1954962658/MPFS2.o
 .debug_pubnames
                0x00000998       0x1f build/default/production/_ext/1954962658/NBNS.o
 .debug_pubnames
                0x000009b7       0x21 build/default/production/_ext/1954962658/Reboot.o
 .debug_pubnames
                0x000009d8       0xd2 build/default/production/_ext/1954962658/SMTP.o
 .debug_pubnames
                0x00000aaa       0x37 build/default/production/_ext/1954962658/SNTP.o
 .debug_pubnames
                0x00000ae1       0x53 build/default/production/_ext/1954962658/StackTsk.o
 .debug_pubnames
                0x00000b34      0x1ba build/default/production/_ext/1954962658/TCP.o
 .debug_pubnames
                0x00000cee       0x5b build/default/production/_ext/1954962658/TCPPerformanceTest.o
 .debug_pubnames
                0x00000d49       0x21 build/default/production/_ext/1954962658/Telnet.o
 .debug_pubnames
                0x00000d6a       0x7e build/default/production/_ext/1954962658/Tick.o
 .debug_pubnames
                0x00000de8       0x40 build/default/production/_ext/1954962658/UART.o
 .debug_pubnames
                0x00000e28      0x143 build/default/production/_ext/1954962658/UDP.o
 .debug_pubnames
                0x00000f6b      0x3a2 build/default/production/_ext/1472/CustomHTTPApp.o
 .debug_pubnames
                0x0000130d       0x69 build/default/production/_ext/1472/MainDemo.o
 .debug_pubnames
                0x00001376       0x2c build/default/production/_ext/1472/BerkeleyTCPClientDemo.o
 .debug_pubnames
                0x000013a2       0x2c build/default/production/_ext/1472/BerkeleyTCPServerDemo.o
 .debug_pubnames
                0x000013ce       0x4a build/default/production/_ext/1472/BerkeleyUDPClientDemo.o
 .debug_pubnames
                0x00001418       0x27 build/default/production/_ext/1472/GenericTCPClient.o
 .debug_pubnames
                0x0000143f       0x27 build/default/production/_ext/1472/GenericTCPServer.o
 .debug_pubnames
                0x00001466       0x1f build/default/production/_ext/1472/PingDemo.o
 .debug_pubnames
                0x00001485       0x1f build/default/production/_ext/1472/SMTPDemo.o
 .debug_pubnames
                0x000014a4       0x23 build/default/production/_ext/1472/UARTConfig.o
 .debug_pubnames
                0x000014c7       0x21 build/default/production/_ext/1472/MPFSImg2.o
 .debug_pubnames
                0x000014e8       0x20 c:/program files/microchip/mplabc32/v2.02/bin/../lib/gcc/pic32mx/4.5.1\libgcc.a(_udivdi3.o)
 .debug_pubnames
                0x00001508       0x1b c:/program files/microchip/mplabc32/v2.02/bin/../lib/gcc/pic32mx/4.5.1/../../../../pic32mx/lib\libc.a(atoi.o)
 .debug_pubnames
                0x00001523       0x1b c:/program files/microchip/mplabc32/v2.02/bin/../lib/gcc/pic32mx/4.5.1/../../../../pic32mx/lib\libc.a(atol.o)
 .debug_pubnames
                0x0000153e       0x1d c:/program files/microchip/mplabc32/v2.02/bin/../lib/gcc/pic32mx/4.5.1/../../../../pic32mx/lib\libc.a(strchr.o)
 .debug_pubnames
                0x0000155b       0x1d c:/program files/microchip/mplabc32/v2.02/bin/../lib/gcc/pic32mx/4.5.1/../../../../pic32mx/lib\libc.a(strstr.o)
 .debug_pubnames
                0x00001578       0x33 c:/program files/microchip/mplabc32/v2.02/bin/../lib/gcc/pic32mx/4.5.1/../../../../pic32mx/lib\libc.a(default-bootstrap-exception-handler.o)
 .debug_pubnames
                0x000015ab       0x20 c:/program files/microchip/mplabc32/v2.02/bin/../lib/gcc/pic32mx/4.5.1/../../../../pic32mx/lib\libc.a(default-on-reset.o)
 .debug_pubnames
                0x000015cb       0x24 c:/program files/microchip/mplabc32/v2.02/bin/../lib/gcc/pic32mx/4.5.1/../../../../pic32mx/lib\libc.a(default-on-bootstrap.o)
 .debug_pubnames
                0x000015ef       0x1e c:/program files/microchip/mplabc32/v2.02/bin/../lib/gcc/pic32mx/4.5.1/../../../../pic32mx/lib\libc.a(strncmp.o)
 .debug_pubnames
                0x0000160d       0x20 c:/program files/microchip/mplabc32/v2.02/bin/../lib/gcc/pic32mx/4.5.1/../../../../pic32mx/lib\libmchp_peripheral_32MX460F512L.a(soft_reset_lib.o)
 .debug_pubnames
                0x0000162d       0x3b c:/program files/microchip/mplabc32/v2.02/bin/../lib/gcc/pic32mx/4.5.1/../../../../pic32mx/lib\libmchp_peripheral_32MX460F512L.a(pcache.o)
 .debug_pubnames
                0x00001668       0x2b c:/program files/microchip/mplabc32/v2.02/bin/../lib/gcc/pic32mx/4.5.1/../../../../pic32mx/lib\libmchp_peripheral_32MX460F512L.a(int_disable_interrupts_lib.o)
 .debug_pubnames
                0x00001693       0x2b c:/program files/microchip/mplabc32/v2.02/bin/../lib/gcc/pic32mx/4.5.1/../../../../pic32mx/lib\libmchp_peripheral_32MX460F512L.a(int_restore_interrupts_lib.o)
 .debug_pubnames
                0x000016be       0x36 c:/program files/microchip/mplabc32/v2.02/bin/../lib/gcc/pic32mx/4.5.1/../../../../pic32mx/lib\libmchp_peripheral_32MX460F512L.a(int_enable_mv_int_lib.o)
 .debug_pubnames
                0x000016f4       0xb1 c:/program files/microchip/mplabc32/v2.02/bin/../lib/gcc/pic32mx/4.5.1/../../../../pic32mx/lib\libmchp_peripheral_32MX460F512L.a(uart_lib.o)
 .debug_pubnames
                0x000017a5       0x2a c:/program files/microchip/mplabc32/v2.02/bin/../lib/gcc/pic32mx/4.5.1/../../../../pic32mx/lib\libmchp_peripheral_32MX460F512L.a(int_enable_interrupts_lib.o)

.debug_info     0x00000000    0x57aa3
 *(.debug_info .gnu.linkonce.wi.*)
 .debug_info    0x00000000     0x181b build/default/production/_ext/1954962658/Announce.o
 .debug_info    0x0000181b      0xf6f build/default/production/_ext/1954962658/ARCFOUR.o
 .debug_info    0x0000278a     0x1924 build/default/production/_ext/1954962658/ARP.o
 .debug_info    0x000040ae     0x1c66 build/default/production/_ext/1954962658/AutoIP.o
 .debug_info    0x00005d14     0x2156 build/default/production/_ext/1954962658/BerkeleyAPI.o
 .debug_info    0x00007e6a      0xf6e build/default/production/_ext/1954962658/BigInt.o
 .debug_info    0x00008dd8     0x1002 build/default/production/_ext/1954962658/Delay.o
 .debug_info    0x00009dda     0x1dd6 build/default/production/_ext/1954962658/DHCP.o
 .debug_info    0x0000bbb0     0x1a67 build/default/production/_ext/1954962658/DHCPs.o
 .debug_info    0x0000d617     0x1ba9 build/default/production/_ext/1954962658/DNS.o
 .debug_info    0x0000f1c0      0xf6c build/default/production/_ext/1954962658/DNSs.o
 .debug_info    0x0001012c      0xf6e build/default/production/_ext/1954962658/DynDNS.o
 .debug_info    0x0001109a     0x3bef build/default/production/_ext/1954962658/ENC28J60.o
 .debug_info    0x00014c89      0xf72 build/default/production/_ext/1954962658/ENCX24J600.o
 .debug_info    0x00015bfb      0xf72 build/default/production/_ext/1954962658/FileSystem.o
 .debug_info    0x00016b6d      0xf6b build/default/production/_ext/1954962658/FTP.o
 .debug_info    0x00017ad8     0x133e build/default/production/_ext/1954962658/Hashes.o
 .debug_info    0x00018e16     0x1fbd build/default/production/_ext/1954962658/Helpers.o
 .debug_info    0x0001add3     0x212e build/default/production/_ext/1954962658/HTTP2.o
 .debug_info    0x0001cf01     0x18fd build/default/production/_ext/1954962658/ICMP.o
 .debug_info    0x0001e7fe     0x193a build/default/production/_ext/1954962658/IP.o
 .debug_info    0x00020138      0xf73 build/default/production/_ext/1954962658/LCDBlocking.o
 .debug_info    0x000210ab     0x1724 build/default/production/_ext/1954962658/MPFS2.o
 .debug_info    0x000227cf     0x1952 build/default/production/_ext/1954962658/NBNS.o
 .debug_info    0x00024121      0xf6e build/default/production/_ext/1954962658/Random.o
 .debug_info    0x0002508f     0x1855 build/default/production/_ext/1954962658/Reboot.o
 .debug_info    0x000268e4      0xf6b build/default/production/_ext/1954962658/RSA.o
 .debug_info    0x0002784f     0x226f build/default/production/_ext/1954962658/SMTP.o
 .debug_info    0x00029abe      0xf6c build/default/production/_ext/1954962658/SNMP.o
 .debug_info    0x0002aa2a      0xf6e build/default/production/_ext/1954962658/SNMPv3.o
 .debug_info    0x0002b998      0xf71 build/default/production/_ext/1954962658/SNMPv3USM.o
 .debug_info    0x0002c909     0x18ee build/default/production/_ext/1954962658/SNTP.o
 .debug_info    0x0002e1f7      0xf71 build/default/production/_ext/1954962658/SPIEEPROM.o
 .debug_info    0x0002f168      0xf70 build/default/production/_ext/1954962658/SPIFlash.o
 .debug_info    0x000300d8      0xf6e build/default/production/_ext/1954962658/SPIRAM.o
 .debug_info    0x00031046      0xf6b build/default/production/_ext/1954962658/SSL.o
 .debug_info    0x00031fb1     0x1830 build/default/production/_ext/1954962658/StackTsk.o
 .debug_info    0x000337e1     0x2fc4 build/default/production/_ext/1954962658/TCP.o
 .debug_info    0x000367a5     0x1690 build/default/production/_ext/1954962658/TCPPerformanceTest.o
 .debug_info    0x00037e35     0x1652 build/default/production/_ext/1954962658/Telnet.o
 .debug_info    0x00039487      0xf6d build/default/production/_ext/1954962658/TFTPc.o
 .debug_info    0x0003a3f4     0x16fc build/default/production/_ext/1954962658/Tick.o
 .debug_info    0x0003baf0      0xf76 build/default/production/_ext/1954962658/UART2TCPBridge.o
 .debug_info    0x0003ca66     0x123a build/default/production/_ext/1954962658/UART.o
 .debug_info    0x0003dca0     0x1e3b build/default/production/_ext/1954962658/UDP.o
 .debug_info    0x0003fadb      0xf7a build/default/production/_ext/1954962658/UDPPerformanceTest.o
 .debug_info    0x00040a55      0xf76 build/default/production/_ext/1954962658/ZeroconfHelper.o
 .debug_info    0x000419cb      0xf79 build/default/production/_ext/1954962658/ZeroconfLinkLocal.o
 .debug_info    0x00042944      0xf7c build/default/production/_ext/1954962658/ZeroconfMulticastDNS.o
 .debug_info    0x000438c0     0x2bdb build/default/production/_ext/1472/CustomHTTPApp.o
 .debug_info    0x0004649b      0xf59 build/default/production/_ext/1472/CustomSNMPApp.o
 .debug_info    0x000473f4      0xf59 build/default/production/_ext/1472/CustomSSLCert.o
 .debug_info    0x0004834d     0x2bb0 build/default/production/_ext/1472/MainDemo.o
 .debug_info    0x0004aefd     0x17a3 build/default/production/_ext/1472/BerkeleyTCPClientDemo.o
 .debug_info    0x0004c6a0     0x125c build/default/production/_ext/1472/BerkeleyTCPServerDemo.o
 .debug_info    0x0004d8fc     0x19ab build/default/production/_ext/1472/BerkeleyUDPClientDemo.o
 .debug_info    0x0004f2a7     0x12cf build/default/production/_ext/1472/GenericTCPClient.o
 .debug_info    0x00050576     0x10a3 build/default/production/_ext/1472/GenericTCPServer.o
 .debug_info    0x00051619     0x11ac build/default/production/_ext/1472/PingDemo.o
 .debug_info    0x000527c5     0x16d0 build/default/production/_ext/1472/SMTPDemo.o
 .debug_info    0x00053e95     0x17c8 build/default/production/_ext/1472/UARTConfig.o
 .debug_info    0x0005565d      0xf91 build/default/production/_ext/1472/MPFSImg2.o
 .debug_info    0x000565ee      0x783 c:/program files/microchip/mplabc32/v2.02/bin/../lib/gcc/pic32mx/4.5.1\libgcc.a(_udivdi3.o)
 .debug_info    0x00056d71       0xcd c:/program files/microchip/mplabc32/v2.02/bin/../lib/gcc/pic32mx/4.5.1/../../../../pic32mx/lib\libc.a(atoi.o)
 .debug_info    0x00056e3e       0xcd c:/program files/microchip/mplabc32/v2.02/bin/../lib/gcc/pic32mx/4.5.1/../../../../pic32mx/lib\libc.a(atol.o)
 .debug_info    0x00056f0b        0x0 c:/program files/microchip/mplabc32/v2.02/bin/../lib/gcc/pic32mx/4.5.1/../../../../pic32mx/lib\libc.a(ctype.o)
 .debug_info    0x00056f0b       0xd1 c:/program files/microchip/mplabc32/v2.02/bin/../lib/gcc/pic32mx/4.5.1/../../../../pic32mx/lib\libc.a(strchr.o)
 .debug_info    0x00056fdc       0xd1 c:/program files/microchip/mplabc32/v2.02/bin/../lib/gcc/pic32mx/4.5.1/../../../../pic32mx/lib\libc.a(strstr.o)
 .debug_info    0x000570ad      0x106 c:/program files/microchip/mplabc32/v2.02/bin/../lib/gcc/pic32mx/4.5.1/../../../../pic32mx/lib\libc.a(default-bootstrap-exception-handler.o)
 .debug_info    0x000571b3       0xe0 c:/program files/microchip/mplabc32/v2.02/bin/../lib/gcc/pic32mx/4.5.1/../../../../pic32mx/lib\libc.a(default-on-reset.o)
 .debug_info    0x00057293       0xe8 c:/program files/microchip/mplabc32/v2.02/bin/../lib/gcc/pic32mx/4.5.1/../../../../pic32mx/lib\libc.a(default-on-bootstrap.o)
 .debug_info    0x0005737b       0xd3 c:/program files/microchip/mplabc32/v2.02/bin/../lib/gcc/pic32mx/4.5.1/../../../../pic32mx/lib\libc.a(strncmp.o)
 .debug_info    0x0005744e       0xc7 c:/program files/microchip/mplabc32/v2.02/bin/../lib/gcc/pic32mx/4.5.1/../../../../pic32mx/lib\libmchp_peripheral_32MX460F512L.a(soft_reset_lib.o)
 .debug_info    0x00057515       0xd4 c:/program files/microchip/mplabc32/v2.02/bin/../lib/gcc/pic32mx/4.5.1/../../../../pic32mx/lib\libmchp_peripheral_32MX460F512L.a(pcache.o)
 .debug_info    0x000575e9       0xcb c:/program files/microchip/mplabc32/v2.02/bin/../lib/gcc/pic32mx/4.5.1/../../../../pic32mx/lib\libmchp_peripheral_32MX460F512L.a(int_disable_interrupts_lib.o)
 .debug_info    0x000576b4       0xcb c:/program files/microchip/mplabc32/v2.02/bin/../lib/gcc/pic32mx/4.5.1/../../../../pic32mx/lib\libmchp_peripheral_32MX460F512L.a(int_restore_interrupts_lib.o)
 .debug_info    0x0005777f       0xd1 c:/program files/microchip/mplabc32/v2.02/bin/../lib/gcc/pic32mx/4.5.1/../../../../pic32mx/lib\libmchp_peripheral_32MX460F512L.a(int_enable_mv_int_lib.o)
 .debug_info    0x00057850      0x18a c:/program files/microchip/mplabc32/v2.02/bin/../lib/gcc/pic32mx/4.5.1/../../../../pic32mx/lib\libmchp_peripheral_32MX460F512L.a(uart_lib.o)
 .debug_info    0x000579da       0xc9 c:/program files/microchip/mplabc32/v2.02/bin/../lib/gcc/pic32mx/4.5.1/../../../../pic32mx/lib\libmchp_peripheral_32MX460F512L.a(int_enable_interrupts_lib.o)

.debug_abbrev   0x00000000     0x7978
 *(.debug_abbrev)
 .debug_abbrev  0x00000000      0x1e5 build/default/production/_ext/1954962658/Announce.o
 .debug_abbrev  0x000001e5      0x166 build/default/production/_ext/1954962658/ARCFOUR.o
 .debug_abbrev  0x0000034b      0x266 build/default/production/_ext/1954962658/ARP.o
 .debug_abbrev  0x000005b1      0x25b build/default/production/_ext/1954962658/AutoIP.o
 .debug_abbrev  0x0000080c      0x2cc build/default/production/_ext/1954962658/BerkeleyAPI.o
 .debug_abbrev  0x00000ad8      0x166 build/default/production/_ext/1954962658/BigInt.o
 .debug_abbrev  0x00000c3e      0x19b build/default/production/_ext/1954962658/Delay.o
 .debug_abbrev  0x00000dd9      0x299 build/default/production/_ext/1954962658/DHCP.o
 .debug_abbrev  0x00001072      0x221 build/default/production/_ext/1954962658/DHCPs.o
 .debug_abbrev  0x00001293      0x262 build/default/production/_ext/1954962658/DNS.o
 .debug_abbrev  0x000014f5      0x166 build/default/production/_ext/1954962658/DNSs.o
 .debug_abbrev  0x0000165b      0x166 build/default/production/_ext/1954962658/DynDNS.o
 .debug_abbrev  0x000017c1      0x308 build/default/production/_ext/1954962658/ENC28J60.o
 .debug_abbrev  0x00001ac9      0x166 build/default/production/_ext/1954962658/ENCX24J600.o
 .debug_abbrev  0x00001c2f      0x166 build/default/production/_ext/1954962658/FileSystem.o
 .debug_abbrev  0x00001d95      0x166 build/default/production/_ext/1954962658/FTP.o
 .debug_abbrev  0x00001efb      0x233 build/default/production/_ext/1954962658/Hashes.o
 .debug_abbrev  0x0000212e      0x24d build/default/production/_ext/1954962658/Helpers.o
 .debug_abbrev  0x0000237b      0x2c3 build/default/production/_ext/1954962658/HTTP2.o
 .debug_abbrev  0x0000263e      0x246 build/default/production/_ext/1954962658/ICMP.o
 .debug_abbrev  0x00002884      0x242 build/default/production/_ext/1954962658/IP.o
 .debug_abbrev  0x00002ac6      0x166 build/default/production/_ext/1954962658/LCDBlocking.o
 .debug_abbrev  0x00002c2c      0x28e build/default/production/_ext/1954962658/MPFS2.o
 .debug_abbrev  0x00002eba      0x23c build/default/production/_ext/1954962658/NBNS.o
 .debug_abbrev  0x000030f6      0x166 build/default/production/_ext/1954962658/Random.o
 .debug_abbrev  0x0000325c      0x1b1 build/default/production/_ext/1954962658/Reboot.o
 .debug_abbrev  0x0000340d      0x166 build/default/production/_ext/1954962658/RSA.o
 .debug_abbrev  0x00003573      0x2da build/default/production/_ext/1954962658/SMTP.o
 .debug_abbrev  0x0000384d      0x166 build/default/production/_ext/1954962658/SNMP.o
 .debug_abbrev  0x000039b3      0x166 build/default/production/_ext/1954962658/SNMPv3.o
 .debug_abbrev  0x00003b19      0x166 build/default/production/_ext/1954962658/SNMPv3USM.o
 .debug_abbrev  0x00003c7f      0x1ef build/default/production/_ext/1954962658/SNTP.o
 .debug_abbrev  0x00003e6e      0x166 build/default/production/_ext/1954962658/SPIEEPROM.o
 .debug_abbrev  0x00003fd4      0x166 build/default/production/_ext/1954962658/SPIFlash.o
 .debug_abbrev  0x0000413a      0x166 build/default/production/_ext/1954962658/SPIRAM.o
 .debug_abbrev  0x000042a0      0x166 build/default/production/_ext/1954962658/SSL.o
 .debug_abbrev  0x00004406      0x21a build/default/production/_ext/1954962658/StackTsk.o
 .debug_abbrev  0x00004620      0x2d2 build/default/production/_ext/1954962658/TCP.o
 .debug_abbrev  0x000048f2      0x20a build/default/production/_ext/1954962658/TCPPerformanceTest.o
 .debug_abbrev  0x00004afc      0x1d2 build/default/production/_ext/1954962658/Telnet.o
 .debug_abbrev  0x00004cce      0x166 build/default/production/_ext/1954962658/TFTPc.o
 .debug_abbrev  0x00004e34      0x214 build/default/production/_ext/1954962658/Tick.o
 .debug_abbrev  0x00005048      0x166 build/default/production/_ext/1954962658/UART2TCPBridge.o
 .debug_abbrev  0x000051ae      0x266 build/default/production/_ext/1954962658/UART.o
 .debug_abbrev  0x00005414      0x2e1 build/default/production/_ext/1954962658/UDP.o
 .debug_abbrev  0x000056f5      0x166 build/default/production/_ext/1954962658/UDPPerformanceTest.o
 .debug_abbrev  0x0000585b      0x166 build/default/production/_ext/1954962658/ZeroconfHelper.o
 .debug_abbrev  0x000059c1      0x166 build/default/production/_ext/1954962658/ZeroconfLinkLocal.o
 .debug_abbrev  0x00005b27      0x166 build/default/production/_ext/1954962658/ZeroconfMulticastDNS.o
 .debug_abbrev  0x00005c8d      0x2d7 build/default/production/_ext/1472/CustomHTTPApp.o
 .debug_abbrev  0x00005f64      0x166 build/default/production/_ext/1472/CustomSNMPApp.o
 .debug_abbrev  0x000060ca      0x166 build/default/production/_ext/1472/CustomSSLCert.o
 .debug_abbrev  0x00006230      0x379 build/default/production/_ext/1472/MainDemo.o
 .debug_abbrev  0x000065a9      0x1e3 build/default/production/_ext/1472/BerkeleyTCPClientDemo.o
 .debug_abbrev  0x0000678c      0x1c7 build/default/production/_ext/1472/BerkeleyTCPServerDemo.o
 .debug_abbrev  0x00006953      0x20b build/default/production/_ext/1472/BerkeleyUDPClientDemo.o
 .debug_abbrev  0x00006b5e      0x1ad build/default/production/_ext/1472/GenericTCPClient.o
 .debug_abbrev  0x00006d0b      0x1ad build/default/production/_ext/1472/GenericTCPServer.o
 .debug_abbrev  0x00006eb8      0x1a2 build/default/production/_ext/1472/PingDemo.o
 .debug_abbrev  0x0000705a      0x1e5 build/default/production/_ext/1472/SMTPDemo.o
 .debug_abbrev  0x0000723f      0x22e build/default/production/_ext/1472/UARTConfig.o
 .debug_abbrev  0x0000746d      0x180 build/default/production/_ext/1472/MPFSImg2.o
 .debug_abbrev  0x000075ed      0x13d c:/program files/microchip/mplabc32/v2.02/bin/../lib/gcc/pic32mx/4.5.1\libgcc.a(_udivdi3.o)
 .debug_abbrev  0x0000772a       0x25 c:/program files/microchip/mplabc32/v2.02/bin/../lib/gcc/pic32mx/4.5.1/../../../../pic32mx/lib\libc.a(atoi.o)
 .debug_abbrev  0x0000774f       0x25 c:/program files/microchip/mplabc32/v2.02/bin/../lib/gcc/pic32mx/4.5.1/../../../../pic32mx/lib\libc.a(atol.o)
 .debug_abbrev  0x00007774        0x1 c:/program files/microchip/mplabc32/v2.02/bin/../lib/gcc/pic32mx/4.5.1/../../../../pic32mx/lib\libc.a(ctype.o)
 .debug_abbrev  0x00007775       0x25 c:/program files/microchip/mplabc32/v2.02/bin/../lib/gcc/pic32mx/4.5.1/../../../../pic32mx/lib\libc.a(strchr.o)
 .debug_abbrev  0x0000779a       0x25 c:/program files/microchip/mplabc32/v2.02/bin/../lib/gcc/pic32mx/4.5.1/../../../../pic32mx/lib\libc.a(strstr.o)
 .debug_abbrev  0x000077bf       0x25 c:/program files/microchip/mplabc32/v2.02/bin/../lib/gcc/pic32mx/4.5.1/../../../../pic32mx/lib\libc.a(default-bootstrap-exception-handler.o)
 .debug_abbrev  0x000077e4       0x25 c:/program files/microchip/mplabc32/v2.02/bin/../lib/gcc/pic32mx/4.5.1/../../../../pic32mx/lib\libc.a(default-on-reset.o)
 .debug_abbrev  0x00007809       0x25 c:/program files/microchip/mplabc32/v2.02/bin/../lib/gcc/pic32mx/4.5.1/../../../../pic32mx/lib\libc.a(default-on-bootstrap.o)
 .debug_abbrev  0x0000782e       0x25 c:/program files/microchip/mplabc32/v2.02/bin/../lib/gcc/pic32mx/4.5.1/../../../../pic32mx/lib\libc.a(strncmp.o)
 .debug_abbrev  0x00007853       0x34 c:/program files/microchip/mplabc32/v2.02/bin/../lib/gcc/pic32mx/4.5.1/../../../../pic32mx/lib\libmchp_peripheral_32MX460F512L.a(soft_reset_lib.o)
 .debug_abbrev  0x00007887       0x25 c:/program files/microchip/mplabc32/v2.02/bin/../lib/gcc/pic32mx/4.5.1/../../../../pic32mx/lib\libmchp_peripheral_32MX460F512L.a(pcache.o)
 .debug_abbrev  0x000078ac       0x25 c:/program files/microchip/mplabc32/v2.02/bin/../lib/gcc/pic32mx/4.5.1/../../../../pic32mx/lib\libmchp_peripheral_32MX460F512L.a(int_disable_interrupts_lib.o)
 .debug_abbrev  0x000078d1       0x25 c:/program files/microchip/mplabc32/v2.02/bin/../lib/gcc/pic32mx/4.5.1/../../../../pic32mx/lib\libmchp_peripheral_32MX460F512L.a(int_restore_interrupts_lib.o)
 .debug_abbrev  0x000078f6       0x25 c:/program files/microchip/mplabc32/v2.02/bin/../lib/gcc/pic32mx/4.5.1/../../../../pic32mx/lib\libmchp_peripheral_32MX460F512L.a(int_enable_mv_int_lib.o)
 .debug_abbrev  0x0000791b       0x38 c:/program files/microchip/mplabc32/v2.02/bin/../lib/gcc/pic32mx/4.5.1/../../../../pic32mx/lib\libmchp_peripheral_32MX460F512L.a(uart_lib.o)
 .debug_abbrev  0x00007953       0x25 c:/program files/microchip/mplabc32/v2.02/bin/../lib/gcc/pic32mx/4.5.1/../../../../pic32mx/lib\libmchp_peripheral_32MX460F512L.a(int_enable_interrupts_lib.o)

.debug_line     0x00000000     0x9767
 *(.debug_line)
 .debug_line    0x00000000      0x220 build/default/production/_ext/1954962658/Announce.o
 .debug_line    0x00000220      0x140 build/default/production/_ext/1954962658/ARCFOUR.o
 .debug_line    0x00000360      0x24c build/default/production/_ext/1954962658/ARP.o
 .debug_line    0x000005ac      0x2f9 build/default/production/_ext/1954962658/AutoIP.o
 .debug_line    0x000008a5      0x409 build/default/production/_ext/1954962658/BerkeleyAPI.o
 .debug_line    0x00000cae      0x140 build/default/production/_ext/1954962658/BigInt.o
 .debug_line    0x00000dee      0x18e build/default/production/_ext/1954962658/Delay.o
 .debug_line    0x00000f7c      0x3ed build/default/production/_ext/1954962658/DHCP.o
 .debug_line    0x00001369      0x2e2 build/default/production/_ext/1954962658/DHCPs.o
 .debug_line    0x0000164b      0x323 build/default/production/_ext/1954962658/DNS.o
 .debug_line    0x0000196e      0x140 build/default/production/_ext/1954962658/DNSs.o
 .debug_line    0x00001aae      0x140 build/default/production/_ext/1954962658/DynDNS.o
 .debug_line    0x00001bee      0x5a4 build/default/production/_ext/1954962658/ENC28J60.o
 .debug_line    0x00002192      0x140 build/default/production/_ext/1954962658/ENCX24J600.o
 .debug_line    0x000022d2      0x140 build/default/production/_ext/1954962658/FileSystem.o
 .debug_line    0x00002412      0x140 build/default/production/_ext/1954962658/FTP.o
 .debug_line    0x00002552      0x24c build/default/production/_ext/1954962658/Hashes.o
 .debug_line    0x0000279e      0x420 build/default/production/_ext/1954962658/Helpers.o
 .debug_line    0x00002bbe      0x659 build/default/production/_ext/1954962658/HTTP2.o
 .debug_line    0x00003217      0x24b build/default/production/_ext/1954962658/ICMP.o
 .debug_line    0x00003462      0x200 build/default/production/_ext/1954962658/IP.o
 .debug_line    0x00003662      0x140 build/default/production/_ext/1954962658/LCDBlocking.o
 .debug_line    0x000037a2      0x37b build/default/production/_ext/1954962658/MPFS2.o
 .debug_line    0x00003b1d      0x257 build/default/production/_ext/1954962658/NBNS.o
 .debug_line    0x00003d74      0x140 build/default/production/_ext/1954962658/Random.o
 .debug_line    0x00003eb4      0x1d9 build/default/production/_ext/1954962658/Reboot.o
 .debug_line    0x0000408d      0x140 build/default/production/_ext/1954962658/RSA.o
 .debug_line    0x000041cd      0x58f build/default/production/_ext/1954962658/SMTP.o
 .debug_line    0x0000475c      0x140 build/default/production/_ext/1954962658/SNMP.o
 .debug_line    0x0000489c      0x140 build/default/production/_ext/1954962658/SNMPv3.o
 .debug_line    0x000049dc      0x140 build/default/production/_ext/1954962658/SNMPv3USM.o
 .debug_line    0x00004b1c      0x23a build/default/production/_ext/1954962658/SNTP.o
 .debug_line    0x00004d56      0x140 build/default/production/_ext/1954962658/SPIEEPROM.o
 .debug_line    0x00004e96      0x140 build/default/production/_ext/1954962658/SPIFlash.o
 .debug_line    0x00004fd6      0x140 build/default/production/_ext/1954962658/SPIRAM.o
 .debug_line    0x00005116      0x140 build/default/production/_ext/1954962658/SSL.o
 .debug_line    0x00005256      0x229 build/default/production/_ext/1954962658/StackTsk.o
 .debug_line    0x0000547f      0xb48 build/default/production/_ext/1954962658/TCP.o
 .debug_line    0x00005fc7      0x24e build/default/production/_ext/1954962658/TCPPerformanceTest.o
 .debug_line    0x00006215      0x298 build/default/production/_ext/1954962658/Telnet.o
 .debug_line    0x000064ad      0x140 build/default/production/_ext/1954962658/TFTPc.o
 .debug_line    0x000065ed      0x1cd build/default/production/_ext/1954962658/Tick.o
 .debug_line    0x000067ba      0x140 build/default/production/_ext/1954962658/UART2TCPBridge.o
 .debug_line    0x000068fa      0x1ed build/default/production/_ext/1954962658/UART.o
 .debug_line    0x00006ae7      0x2f8 build/default/production/_ext/1954962658/UDP.o
 .debug_line    0x00006ddf      0x140 build/default/production/_ext/1954962658/UDPPerformanceTest.o
 .debug_line    0x00006f1f      0x140 build/default/production/_ext/1954962658/ZeroconfHelper.o
 .debug_line    0x0000705f      0x140 build/default/production/_ext/1954962658/ZeroconfLinkLocal.o
 .debug_line    0x0000719f      0x140 build/default/production/_ext/1954962658/ZeroconfMulticastDNS.o
 .debug_line    0x000072df      0x5aa build/default/production/_ext/1472/CustomHTTPApp.o
 .debug_line    0x00007889      0x140 build/default/production/_ext/1472/CustomSNMPApp.o
 .debug_line    0x000079c9      0x140 build/default/production/_ext/1472/CustomSSLCert.o
 .debug_line    0x00007b09      0x317 build/default/production/_ext/1472/MainDemo.o
 .debug_line    0x00007e20      0x1ef build/default/production/_ext/1472/BerkeleyTCPClientDemo.o
 .debug_line    0x0000800f      0x1eb build/default/production/_ext/1472/BerkeleyTCPServerDemo.o
 .debug_line    0x000081fa      0x217 build/default/production/_ext/1472/BerkeleyUDPClientDemo.o
 .debug_line    0x00008411      0x1f1 build/default/production/_ext/1472/GenericTCPClient.o
 .debug_line    0x00008602      0x1d6 build/default/production/_ext/1472/GenericTCPServer.o
 .debug_line    0x000087d8      0x188 build/default/production/_ext/1472/PingDemo.o
 .debug_line    0x00008960      0x1d1 build/default/production/_ext/1472/SMTPDemo.o
 .debug_line    0x00008b31      0x21e build/default/production/_ext/1472/UARTConfig.o
 .debug_line    0x00008d4f      0x151 build/default/production/_ext/1472/MPFSImg2.o
 .debug_line    0x00008ea0      0x112 c:/program files/microchip/mplabc32/v2.02/bin/../lib/gcc/pic32mx/4.5.1\libgcc.a(_udivdi3.o)
 .debug_line    0x00008fb2       0x85 c:/program files/microchip/mplabc32/v2.02/bin/../lib/gcc/pic32mx/4.5.1/../../../../pic32mx/lib\libc.a(atoi.o)
 .debug_line    0x00009037       0x85 c:/program files/microchip/mplabc32/v2.02/bin/../lib/gcc/pic32mx/4.5.1/../../../../pic32mx/lib\libc.a(atol.o)
 .debug_line    0x000090bc        0x0 c:/program files/microchip/mplabc32/v2.02/bin/../lib/gcc/pic32mx/4.5.1/../../../../pic32mx/lib\libc.a(ctype.o)
 .debug_line    0x000090bc       0x87 c:/program files/microchip/mplabc32/v2.02/bin/../lib/gcc/pic32mx/4.5.1/../../../../pic32mx/lib\libc.a(strchr.o)
 .debug_line    0x00009143       0x87 c:/program files/microchip/mplabc32/v2.02/bin/../lib/gcc/pic32mx/4.5.1/../../../../pic32mx/lib\libc.a(strstr.o)
 .debug_line    0x000091ca       0xa6 c:/program files/microchip/mplabc32/v2.02/bin/../lib/gcc/pic32mx/4.5.1/../../../../pic32mx/lib\libc.a(default-bootstrap-exception-handler.o)
 .debug_line    0x00009270       0x93 c:/program files/microchip/mplabc32/v2.02/bin/../lib/gcc/pic32mx/4.5.1/../../../../pic32mx/lib\libc.a(default-on-reset.o)
 .debug_line    0x00009303       0x97 c:/program files/microchip/mplabc32/v2.02/bin/../lib/gcc/pic32mx/4.5.1/../../../../pic32mx/lib\libc.a(default-on-bootstrap.o)
 .debug_line    0x0000939a       0x88 c:/program files/microchip/mplabc32/v2.02/bin/../lib/gcc/pic32mx/4.5.1/../../../../pic32mx/lib\libc.a(strncmp.o)
 .debug_line    0x00009422       0xbb c:/program files/microchip/mplabc32/v2.02/bin/../lib/gcc/pic32mx/4.5.1/../../../../pic32mx/lib\libmchp_peripheral_32MX460F512L.a(soft_reset_lib.o)
 .debug_line    0x000094dd       0x62 c:/program files/microchip/mplabc32/v2.02/bin/../lib/gcc/pic32mx/4.5.1/../../../../pic32mx/lib\libmchp_peripheral_32MX460F512L.a(pcache.o)
 .debug_line    0x0000953f       0x73 c:/program files/microchip/mplabc32/v2.02/bin/../lib/gcc/pic32mx/4.5.1/../../../../pic32mx/lib\libmchp_peripheral_32MX460F512L.a(int_disable_interrupts_lib.o)
 .debug_line    0x000095b2       0x73 c:/program files/microchip/mplabc32/v2.02/bin/../lib/gcc/pic32mx/4.5.1/../../../../pic32mx/lib\libmchp_peripheral_32MX460F512L.a(int_restore_interrupts_lib.o)
 .debug_line    0x00009625       0x6e c:/program files/microchip/mplabc32/v2.02/bin/../lib/gcc/pic32mx/4.5.1/../../../../pic32mx/lib\libmchp_peripheral_32MX460F512L.a(int_enable_mv_int_lib.o)
 .debug_line    0x00009693       0x62 c:/program files/microchip/mplabc32/v2.02/bin/../lib/gcc/pic32mx/4.5.1/../../../../pic32mx/lib\libmchp_peripheral_32MX460F512L.a(uart_lib.o)
 .debug_line    0x000096f5       0x72 c:/program files/microchip/mplabc32/v2.02/bin/../lib/gcc/pic32mx/4.5.1/../../../../pic32mx/lib\libmchp_peripheral_32MX460F512L.a(int_enable_interrupts_lib.o)

.debug_frame    0x00000000     0x240c
 *(.debug_frame)
 .debug_frame   0x00000000       0x48 build/default/production/_ext/1954962658/Announce.o
 .debug_frame   0x00000048       0xb0 build/default/production/_ext/1954962658/ARP.o
 .debug_frame   0x000000f8      0x118 build/default/production/_ext/1954962658/AutoIP.o
 .debug_frame   0x00000210      0x174 build/default/production/_ext/1954962658/BerkeleyAPI.o
 .debug_frame   0x00000384       0x44 build/default/production/_ext/1954962658/Delay.o
 .debug_frame   0x000003c8      0x114 build/default/production/_ext/1954962658/DHCP.o
 .debug_frame   0x000004dc       0x64 build/default/production/_ext/1954962658/DHCPs.o
 .debug_frame   0x00000540       0xb4 build/default/production/_ext/1954962658/DNS.o
 .debug_frame   0x000005f4      0x36c build/default/production/_ext/1954962658/ENC28J60.o
 .debug_frame   0x00000960       0x94 build/default/production/_ext/1954962658/Hashes.o
 .debug_frame   0x000009f4      0x1cc build/default/production/_ext/1954962658/Helpers.o
 .debug_frame   0x00000bc0      0x1ec build/default/production/_ext/1954962658/HTTP2.o
 .debug_frame   0x00000dac       0xb0 build/default/production/_ext/1954962658/ICMP.o
 .debug_frame   0x00000e5c       0x80 build/default/production/_ext/1954962658/IP.o
 .debug_frame   0x00000edc      0x230 build/default/production/_ext/1954962658/MPFS2.o
 .debug_frame   0x0000110c       0x64 build/default/production/_ext/1954962658/NBNS.o
 .debug_frame   0x00001170       0x2c build/default/production/_ext/1954962658/Reboot.o
 .debug_frame   0x0000119c      0x168 build/default/production/_ext/1954962658/SMTP.o
 .debug_frame   0x00001304       0x48 build/default/production/_ext/1954962658/SNTP.o
 .debug_frame   0x0000134c       0x64 build/default/production/_ext/1954962658/StackTsk.o
 .debug_frame   0x000013b0      0x39c build/default/production/_ext/1954962658/TCP.o
 .debug_frame   0x0000174c       0x80 build/default/production/_ext/1954962658/TCPPerformanceTest.o
 .debug_frame   0x000017cc       0x2c build/default/production/_ext/1954962658/Telnet.o
 .debug_frame   0x000017f8       0xcc build/default/production/_ext/1954962658/Tick.o
 .debug_frame   0x000018c4       0x58 build/default/production/_ext/1954962658/UART.o
 .debug_frame   0x0000191c      0x1e4 build/default/production/_ext/1954962658/UDP.o
 .debug_frame   0x00001b00      0x45c build/default/production/_ext/1472/CustomHTTPApp.o
 .debug_frame   0x00001f5c       0xb4 build/default/production/_ext/1472/MainDemo.o
 .debug_frame   0x00002010       0x30 build/default/production/_ext/1472/BerkeleyTCPClientDemo.o
 .debug_frame   0x00002040       0x2c build/default/production/_ext/1472/BerkeleyTCPServerDemo.o
 .debug_frame   0x0000206c       0x48 build/default/production/_ext/1472/BerkeleyUDPClientDemo.o
 .debug_frame   0x000020b4       0x2c build/default/production/_ext/1472/GenericTCPClient.o
 .debug_frame   0x000020e0       0x2c build/default/production/_ext/1472/GenericTCPServer.o
 .debug_frame   0x0000210c       0x2c build/default/production/_ext/1472/PingDemo.o
 .debug_frame   0x00002138       0x2c build/default/production/_ext/1472/SMTPDemo.o
 .debug_frame   0x00002164       0x2c build/default/production/_ext/1472/UARTConfig.o
 .debug_frame   0x00002190       0x20 c:/program files/microchip/mplabc32/v2.02/bin/../lib/gcc/pic32mx/4.5.1/../../../../pic32mx/lib\libc.a(atoi.o)
 .debug_frame   0x000021b0       0x20 c:/program files/microchip/mplabc32/v2.02/bin/../lib/gcc/pic32mx/4.5.1/../../../../pic32mx/lib\libc.a(atol.o)
 .debug_frame   0x000021d0       0x20 c:/program files/microchip/mplabc32/v2.02/bin/../lib/gcc/pic32mx/4.5.1/../../../../pic32mx/lib\libc.a(strchr.o)
 .debug_frame   0x000021f0       0x2c c:/program files/microchip/mplabc32/v2.02/bin/../lib/gcc/pic32mx/4.5.1/../../../../pic32mx/lib\libc.a(strstr.o)
 .debug_frame   0x0000221c       0x20 c:/program files/microchip/mplabc32/v2.02/bin/../lib/gcc/pic32mx/4.5.1/../../../../pic32mx/lib\libc.a(default-bootstrap-exception-handler.o)
 .debug_frame   0x0000223c       0x20 c:/program files/microchip/mplabc32/v2.02/bin/../lib/gcc/pic32mx/4.5.1/../../../../pic32mx/lib\libc.a(default-on-reset.o)
 .debug_frame   0x0000225c       0x20 c:/program files/microchip/mplabc32/v2.02/bin/../lib/gcc/pic32mx/4.5.1/../../../../pic32mx/lib\libc.a(default-on-bootstrap.o)
 .debug_frame   0x0000227c       0x20 c:/program files/microchip/mplabc32/v2.02/bin/../lib/gcc/pic32mx/4.5.1/../../../../pic32mx/lib\libc.a(strncmp.o)
 .debug_frame   0x0000229c       0x28 c:/program files/microchip/mplabc32/v2.02/bin/../lib/gcc/pic32mx/4.5.1/../../../../pic32mx/lib\libmchp_peripheral_32MX460F512L.a(soft_reset_lib.o)
 .debug_frame   0x000022c4       0x30 c:/program files/microchip/mplabc32/v2.02/bin/../lib/gcc/pic32mx/4.5.1/../../../../pic32mx/lib\libmchp_peripheral_32MX460F512L.a(pcache.o)
 .debug_frame   0x000022f4       0x20 c:/program files/microchip/mplabc32/v2.02/bin/../lib/gcc/pic32mx/4.5.1/../../../../pic32mx/lib\libmchp_peripheral_32MX460F512L.a(int_disable_interrupts_lib.o)
 .debug_frame   0x00002314       0x20 c:/program files/microchip/mplabc32/v2.02/bin/../lib/gcc/pic32mx/4.5.1/../../../../pic32mx/lib\libmchp_peripheral_32MX460F512L.a(int_restore_interrupts_lib.o)
 .debug_frame   0x00002334       0x28 c:/program files/microchip/mplabc32/v2.02/bin/../lib/gcc/pic32mx/4.5.1/../../../../pic32mx/lib\libmchp_peripheral_32MX460F512L.a(int_enable_mv_int_lib.o)
 .debug_frame   0x0000235c       0x90 c:/program files/microchip/mplabc32/v2.02/bin/../lib/gcc/pic32mx/4.5.1/../../../../pic32mx/lib\libmchp_peripheral_32MX460F512L.a(uart_lib.o)
 .debug_frame   0x000023ec       0x20 c:/program files/microchip/mplabc32/v2.02/bin/../lib/gcc/pic32mx/4.5.1/../../../../pic32mx/lib\libmchp_peripheral_32MX460F512L.a(int_enable_interrupts_lib.o)

.debug_str      0x00000000     0x3d2b
 *(.debug_str)
 .debug_str     0x00000000      0x10e build/default/production/_ext/1954962658/Announce.o
 .debug_str     0x0000010e       0xe2 build/default/production/_ext/1954962658/ARCFOUR.o
 .debug_str     0x000001f0       0xfa build/default/production/_ext/1954962658/ARP.o
 .debug_str     0x000002ea       0xf7 build/default/production/_ext/1954962658/AutoIP.o
 .debug_str     0x000003e1      0x13c build/default/production/_ext/1954962658/BerkeleyAPI.o
 .debug_str     0x0000051d       0xe2 build/default/production/_ext/1954962658/BigInt.o
 .debug_str     0x000005ff       0xe2 build/default/production/_ext/1954962658/Delay.o
 .debug_str     0x000006e1      0x12a build/default/production/_ext/1954962658/DHCP.o
 .debug_str     0x0000080b      0x118 build/default/production/_ext/1954962658/DHCPs.o
 .debug_str     0x00000923       0xec build/default/production/_ext/1954962658/DNS.o
 .debug_str     0x00000a0f       0xe2 build/default/production/_ext/1954962658/DNSs.o
 .debug_str     0x00000af1       0xe2 build/default/production/_ext/1954962658/DynDNS.o
 .debug_str     0x00000bd3      0x199 build/default/production/_ext/1954962658/ENC28J60.o
 .debug_str     0x00000d6c       0xe2 build/default/production/_ext/1954962658/ENCX24J600.o
 .debug_str     0x00000e4e       0xe2 build/default/production/_ext/1954962658/FileSystem.o
 .debug_str     0x00000f30       0xe2 build/default/production/_ext/1954962658/FTP.o
 .debug_str     0x00001012       0xf3 build/default/production/_ext/1954962658/Hashes.o
 .debug_str     0x00001105      0x11f build/default/production/_ext/1954962658/Helpers.o
 .debug_str     0x00001224      0x10e build/default/production/_ext/1954962658/HTTP2.o
 .debug_str     0x00001332       0xe2 build/default/production/_ext/1954962658/ICMP.o
 .debug_str     0x00001414       0xf5 build/default/production/_ext/1954962658/IP.o
 .debug_str     0x00001509       0xe2 build/default/production/_ext/1954962658/LCDBlocking.o
 .debug_str     0x000015eb      0x106 build/default/production/_ext/1954962658/MPFS2.o
 .debug_str     0x000016f1      0x105 build/default/production/_ext/1954962658/NBNS.o
 .debug_str     0x000017f6       0xe2 build/default/production/_ext/1954962658/Random.o
 .debug_str     0x000018d8      0x100 build/default/production/_ext/1954962658/Reboot.o
 .debug_str     0x000019d8       0xe2 build/default/production/_ext/1954962658/RSA.o
 .debug_str     0x00001aba      0x135 build/default/production/_ext/1954962658/SMTP.o
 .debug_str     0x00001bef       0xe2 build/default/production/_ext/1954962658/SNMP.o
 .debug_str     0x00001cd1       0xe2 build/default/production/_ext/1954962658/SNMPv3.o
 .debug_str     0x00001db3       0xe2 build/default/production/_ext/1954962658/SNMPv3USM.o
 .debug_str     0x00001e95       0xe2 build/default/production/_ext/1954962658/SNTP.o
 .debug_str     0x00001f77       0xe2 build/default/production/_ext/1954962658/SPIEEPROM.o
 .debug_str     0x00002059       0xe2 build/default/production/_ext/1954962658/SPIFlash.o
 .debug_str     0x0000213b       0xe2 build/default/production/_ext/1954962658/SPIRAM.o
 .debug_str     0x0000221d       0xe2 build/default/production/_ext/1954962658/SSL.o
 .debug_str     0x000022ff       0xf7 build/default/production/_ext/1954962658/StackTsk.o
 .debug_str     0x000023f6      0x1ad build/default/production/_ext/1954962658/TCP.o
 .debug_str     0x000025a3       0xf7 build/default/production/_ext/1954962658/TCPPerformanceTest.o
 .debug_str     0x0000269a       0xff build/default/production/_ext/1954962658/Telnet.o
 .debug_str     0x00002799       0xe2 build/default/production/_ext/1954962658/TFTPc.o
 .debug_str     0x0000287b       0xfe build/default/production/_ext/1954962658/Tick.o
 .debug_str     0x00002979       0xe2 build/default/production/_ext/1954962658/UART2TCPBridge.o
 .debug_str     0x00002a5b       0xe2 build/default/production/_ext/1954962658/UART.o
 .debug_str     0x00002b3d      0x156 build/default/production/_ext/1954962658/UDP.o
 .debug_str     0x00002c93       0xe2 build/default/production/_ext/1954962658/UDPPerformanceTest.o
 .debug_str     0x00002d75       0xe2 build/default/production/_ext/1954962658/ZeroconfHelper.o
 .debug_str     0x00002e57       0xe2 build/default/production/_ext/1954962658/ZeroconfLinkLocal.o
 .debug_str     0x00002f39       0xe2 build/default/production/_ext/1954962658/ZeroconfMulticastDNS.o
 .debug_str     0x0000301b      0x179 build/default/production/_ext/1472/CustomHTTPApp.o
 .debug_str     0x00003194       0xe2 build/default/production/_ext/1472/CustomSNMPApp.o
 .debug_str     0x00003276       0xe2 build/default/production/_ext/1472/CustomSSLCert.o
 .debug_str     0x00003358      0x17a build/default/production/_ext/1472/MainDemo.o
 .debug_str     0x000034d2       0xe2 build/default/production/_ext/1472/BerkeleyTCPClientDemo.o
 .debug_str     0x000035b4       0xe2 build/default/production/_ext/1472/BerkeleyTCPServerDemo.o
 .debug_str     0x00003696       0xe2 build/default/production/_ext/1472/BerkeleyUDPClientDemo.o
 .debug_str     0x00003778       0xec build/default/production/_ext/1472/GenericTCPClient.o
 .debug_str     0x00003864       0xe2 build/default/production/_ext/1472/GenericTCPServer.o
 .debug_str     0x00003946       0xec build/default/production/_ext/1472/PingDemo.o
 .debug_str     0x00003a32      0x12b build/default/production/_ext/1472/SMTPDemo.o
 .debug_str     0x00003b5d       0xec build/default/production/_ext/1472/UARTConfig.o
 .debug_str     0x00003c49       0xe2 build/default/production/_ext/1472/MPFSImg2.o
 .debug_str     0x00003d2b        0x0 c:/program files/microchip/mplabc32/v2.02/bin/../lib/gcc/pic32mx/4.5.1\libgcc.a(_udivdi3.o)
 .debug_str     0x00003d2b        0x0 c:/program files/microchip/mplabc32/v2.02/bin/../lib/gcc/pic32mx/4.5.1/../../../../pic32mx/lib\libc.a(atoi.o)
 .debug_str     0x00003d2b        0x0 c:/program files/microchip/mplabc32/v2.02/bin/../lib/gcc/pic32mx/4.5.1/../../../../pic32mx/lib\libc.a(atol.o)
 .debug_str     0x00003d2b        0x0 c:/program files/microchip/mplabc32/v2.02/bin/../lib/gcc/pic32mx/4.5.1/../../../../pic32mx/lib\libc.a(ctype.o)
 .debug_str     0x00003d2b        0x0 c:/program files/microchip/mplabc32/v2.02/bin/../lib/gcc/pic32mx/4.5.1/../../../../pic32mx/lib\libc.a(strchr.o)
 .debug_str     0x00003d2b        0x0 c:/program files/microchip/mplabc32/v2.02/bin/../lib/gcc/pic32mx/4.5.1/../../../../pic32mx/lib\libc.a(strstr.o)
 .debug_str     0x00003d2b        0x0 c:/program files/microchip/mplabc32/v2.02/bin/../lib/gcc/pic32mx/4.5.1/../../../../pic32mx/lib\libc.a(default-bootstrap-exception-handler.o)
 .debug_str     0x00003d2b        0x0 c:/program files/microchip/mplabc32/v2.02/bin/../lib/gcc/pic32mx/4.5.1/../../../../pic32mx/lib\libc.a(default-on-reset.o)
 .debug_str     0x00003d2b        0x0 c:/program files/microchip/mplabc32/v2.02/bin/../lib/gcc/pic32mx/4.5.1/../../../../pic32mx/lib\libc.a(default-on-bootstrap.o)
 .debug_str     0x00003d2b        0x0 c:/program files/microchip/mplabc32/v2.02/bin/../lib/gcc/pic32mx/4.5.1/../../../../pic32mx/lib\libc.a(strncmp.o)
 .debug_str     0x00003d2b        0x0 c:/program files/microchip/mplabc32/v2.02/bin/../lib/gcc/pic32mx/4.5.1/../../../../pic32mx/lib\libmchp_peripheral_32MX460F512L.a(soft_reset_lib.o)
 .debug_str     0x00003d2b        0x0 c:/program files/microchip/mplabc32/v2.02/bin/../lib/gcc/pic32mx/4.5.1/../../../../pic32mx/lib\libmchp_peripheral_32MX460F512L.a(pcache.o)
 .debug_str     0x00003d2b        0x0 c:/program files/microchip/mplabc32/v2.02/bin/../lib/gcc/pic32mx/4.5.1/../../../../pic32mx/lib\libmchp_peripheral_32MX460F512L.a(int_disable_interrupts_lib.o)
 .debug_str     0x00003d2b        0x0 c:/program files/microchip/mplabc32/v2.02/bin/../lib/gcc/pic32mx/4.5.1/../../../../pic32mx/lib\libmchp_peripheral_32MX460F512L.a(int_restore_interrupts_lib.o)
 .debug_str     0x00003d2b        0x0 c:/program files/microchip/mplabc32/v2.02/bin/../lib/gcc/pic32mx/4.5.1/../../../../pic32mx/lib\libmchp_peripheral_32MX460F512L.a(int_enable_mv_int_lib.o)
 .debug_str     0x00003d2b        0x0 c:/program files/microchip/mplabc32/v2.02/bin/../lib/gcc/pic32mx/4.5.1/../../../../pic32mx/lib\libmchp_peripheral_32MX460F512L.a(uart_lib.o)
 .debug_str     0x00003d2b        0x0 c:/program files/microchip/mplabc32/v2.02/bin/../lib/gcc/pic32mx/4.5.1/../../../../pic32mx/lib\libmchp_peripheral_32MX460F512L.a(int_enable_interrupts_lib.o)

.debug_loc      0x00000000      0xa47
 *(.debug_loc)
 .debug_loc     0x00000000      0xa47 c:/program files/microchip/mplabc32/v2.02/bin/../lib/gcc/pic32mx/4.5.1\libgcc.a(_udivdi3.o)

.debug_macinfo
 *(.debug_macinfo)

.debug_weaknames
 *(.debug_weaknames)

.debug_funcnames
 *(.debug_funcnames)

.debug_typenames
 *(.debug_typenames)

.debug_varnames
 *(.debug_varnames)

.debug_pubtypes
                0x00000000     0x4238
 *(.debug_pubtypes)
 .debug_pubtypes
                0x00000000      0x14e build/default/production/_ext/1954962658/Announce.o
 .debug_pubtypes
                0x0000014e       0xbd build/default/production/_ext/1954962658/ARCFOUR.o
 .debug_pubtypes
                0x0000020b      0x140 build/default/production/_ext/1954962658/ARP.o
 .debug_pubtypes
                0x0000034b      0x170 build/default/production/_ext/1954962658/AutoIP.o
 .debug_pubtypes
                0x000004bb      0x1cf build/default/production/_ext/1954962658/BerkeleyAPI.o
 .debug_pubtypes
                0x0000068a       0xbd build/default/production/_ext/1954962658/BigInt.o
 .debug_pubtypes
                0x00000747       0xd0 build/default/production/_ext/1954962658/Delay.o
 .debug_pubtypes
                0x00000817      0x18c build/default/production/_ext/1954962658/DHCP.o
 .debug_pubtypes
                0x000009a3      0x172 build/default/production/_ext/1954962658/DHCPs.o
 .debug_pubtypes
                0x00000b15      0x16f build/default/production/_ext/1954962658/DNS.o
 .debug_pubtypes
                0x00000c84       0xbd build/default/production/_ext/1954962658/DNSs.o
 .debug_pubtypes
                0x00000d41       0xbd build/default/production/_ext/1954962658/DynDNS.o
 .debug_pubtypes
                0x00000dfe      0x1c4 build/default/production/_ext/1954962658/ENC28J60.o
 .debug_pubtypes
                0x00000fc2       0xbd build/default/production/_ext/1954962658/ENCX24J600.o
 .debug_pubtypes
                0x0000107f       0xbd build/default/production/_ext/1954962658/FileSystem.o
 .debug_pubtypes
                0x0000113c       0xbd build/default/production/_ext/1954962658/FTP.o
 .debug_pubtypes
                0x000011f9       0xf4 build/default/production/_ext/1954962658/Hashes.o
 .debug_pubtypes
                0x000012ed      0x123 build/default/production/_ext/1954962658/Helpers.o
 .debug_pubtypes
                0x00001410      0x19a build/default/production/_ext/1954962658/HTTP2.o
 .debug_pubtypes
                0x000015aa      0x145 build/default/production/_ext/1954962658/ICMP.o
 .debug_pubtypes
                0x000016ef      0x14e build/default/production/_ext/1954962658/IP.o
 .debug_pubtypes
                0x0000183d       0xbd build/default/production/_ext/1954962658/LCDBlocking.o
 .debug_pubtypes
                0x000018fa      0x13e build/default/production/_ext/1954962658/MPFS2.o
 .debug_pubtypes
                0x00001a38      0x16f build/default/production/_ext/1954962658/NBNS.o
 .debug_pubtypes
                0x00001ba7       0xbd build/default/production/_ext/1954962658/Random.o
 .debug_pubtypes
                0x00001c64      0x13e build/default/production/_ext/1954962658/Reboot.o
 .debug_pubtypes
                0x00001da2       0xbd build/default/production/_ext/1954962658/RSA.o
 .debug_pubtypes
                0x00001e5f      0x13b build/default/production/_ext/1954962658/SMTP.o
 .debug_pubtypes
                0x00001f9a       0xbd build/default/production/_ext/1954962658/SNMP.o
 .debug_pubtypes
                0x00002057       0xbd build/default/production/_ext/1954962658/SNMPv3.o
 .debug_pubtypes
                0x00002114       0xbd build/default/production/_ext/1954962658/SNMPv3USM.o
 .debug_pubtypes
                0x000021d1      0x140 build/default/production/_ext/1954962658/SNTP.o
 .debug_pubtypes
                0x00002311       0xbd build/default/production/_ext/1954962658/SPIEEPROM.o
 .debug_pubtypes
                0x000023ce       0xbd build/default/production/_ext/1954962658/SPIFlash.o
 .debug_pubtypes
                0x0000248b       0xbd build/default/production/_ext/1954962658/SPIRAM.o
 .debug_pubtypes
                0x00002548       0xbd build/default/production/_ext/1954962658/SSL.o
 .debug_pubtypes
                0x00002605      0x13e build/default/production/_ext/1954962658/StackTsk.o
 .debug_pubtypes
                0x00002743      0x1e6 build/default/production/_ext/1954962658/TCP.o
 .debug_pubtypes
                0x00002929      0x10d build/default/production/_ext/1954962658/TCPPerformanceTest.o
 .debug_pubtypes
                0x00002a36      0x11e build/default/production/_ext/1954962658/Telnet.o
 .debug_pubtypes
                0x00002b54       0xbd build/default/production/_ext/1954962658/TFTPc.o
 .debug_pubtypes
                0x00002c11      0x10d build/default/production/_ext/1954962658/Tick.o
 .debug_pubtypes
                0x00002d1e       0xbd build/default/production/_ext/1954962658/UART2TCPBridge.o
 .debug_pubtypes
                0x00002ddb       0xe9 build/default/production/_ext/1954962658/UART.o
 .debug_pubtypes
                0x00002ec4      0x195 build/default/production/_ext/1954962658/UDP.o
 .debug_pubtypes
                0x00003059       0xbd build/default/production/_ext/1954962658/UDPPerformanceTest.o
 .debug_pubtypes
                0x00003116       0xbd build/default/production/_ext/1954962658/ZeroconfHelper.o
 .debug_pubtypes
                0x000031d3       0xbd build/default/production/_ext/1954962658/ZeroconfLinkLocal.o
 .debug_pubtypes
                0x00003290       0xbd build/default/production/_ext/1954962658/ZeroconfMulticastDNS.o
 .debug_pubtypes
                0x0000334d      0x1f1 build/default/production/_ext/1472/CustomHTTPApp.o
 .debug_pubtypes
                0x0000353e       0xbd build/default/production/_ext/1472/CustomSNMPApp.o
 .debug_pubtypes
                0x000035fb       0xbd build/default/production/_ext/1472/CustomSSLCert.o
 .debug_pubtypes
                0x000036b8      0x1c0 build/default/production/_ext/1472/MainDemo.o
 .debug_pubtypes
                0x00003878      0x128 build/default/production/_ext/1472/BerkeleyTCPClientDemo.o
 .debug_pubtypes
                0x000039a0      0x10d build/default/production/_ext/1472/BerkeleyTCPServerDemo.o
 .debug_pubtypes
                0x00003aad      0x14a build/default/production/_ext/1472/BerkeleyUDPClientDemo.o
 .debug_pubtypes
                0x00003bf7      0x104 build/default/production/_ext/1472/GenericTCPClient.o
 .debug_pubtypes
                0x00003cfb       0xde build/default/production/_ext/1472/GenericTCPServer.o
 .debug_pubtypes
                0x00003dd9       0xf5 build/default/production/_ext/1472/PingDemo.o
 .debug_pubtypes
                0x00003ece      0x118 build/default/production/_ext/1472/SMTPDemo.o
 .debug_pubtypes
                0x00003fe6      0x133 build/default/production/_ext/1472/UARTConfig.o
 .debug_pubtypes
                0x00004119       0xc6 build/default/production/_ext/1472/MPFSImg2.o
 .debug_pubtypes
                0x000041df       0x59 c:/program files/microchip/mplabc32/v2.02/bin/../lib/gcc/pic32mx/4.5.1\libgcc.a(_udivdi3.o)

.debug_ranges   0x00000000      0x268
 *(.debug_ranges)
 .debug_ranges  0x00000000       0x18 build/default/production/_ext/1954962658/DHCPs.o
 .debug_ranges  0x00000018       0x18 build/default/production/_ext/1954962658/ENC28J60.o
 .debug_ranges  0x00000030       0x18 build/default/production/_ext/1954962658/TCP.o
 .debug_ranges  0x00000048       0x30 build/default/production/_ext/1472/MainDemo.o
 .debug_ranges  0x00000078       0xc0 c:/program files/microchip/mplabc32/v2.02/bin/../lib/gcc/pic32mx/4.5.1\libgcc.a(_udivdi3.o)
 .debug_ranges  0x00000138       0x10 c:/program files/microchip/mplabc32/v2.02/bin/../lib/gcc/pic32mx/4.5.1/../../../../pic32mx/lib\libc.a(atoi.o)
 .debug_ranges  0x00000148       0x10 c:/program files/microchip/mplabc32/v2.02/bin/../lib/gcc/pic32mx/4.5.1/../../../../pic32mx/lib\libc.a(atol.o)
 .debug_ranges  0x00000158       0x10 c:/program files/microchip/mplabc32/v2.02/bin/../lib/gcc/pic32mx/4.5.1/../../../../pic32mx/lib\libc.a(strchr.o)
 .debug_ranges  0x00000168       0x10 c:/program files/microchip/mplabc32/v2.02/bin/../lib/gcc/pic32mx/4.5.1/../../../../pic32mx/lib\libc.a(strstr.o)
 .debug_ranges  0x00000178       0x10 c:/program files/microchip/mplabc32/v2.02/bin/../lib/gcc/pic32mx/4.5.1/../../../../pic32mx/lib\libc.a(default-bootstrap-exception-handler.o)
 .debug_ranges  0x00000188       0x10 c:/program files/microchip/mplabc32/v2.02/bin/../lib/gcc/pic32mx/4.5.1/../../../../pic32mx/lib\libc.a(default-on-reset.o)
 .debug_ranges  0x00000198       0x10 c:/program files/microchip/mplabc32/v2.02/bin/../lib/gcc/pic32mx/4.5.1/../../../../pic32mx/lib\libc.a(default-on-bootstrap.o)
 .debug_ranges  0x000001a8       0x10 c:/program files/microchip/mplabc32/v2.02/bin/../lib/gcc/pic32mx/4.5.1/../../../../pic32mx/lib\libc.a(strncmp.o)
 .debug_ranges  0x000001b8       0x10 c:/program files/microchip/mplabc32/v2.02/bin/../lib/gcc/pic32mx/4.5.1/../../../../pic32mx/lib\libmchp_peripheral_32MX460F512L.a(soft_reset_lib.o)
 .debug_ranges  0x000001c8       0x18 c:/program files/microchip/mplabc32/v2.02/bin/../lib/gcc/pic32mx/4.5.1/../../../../pic32mx/lib\libmchp_peripheral_32MX460F512L.a(pcache.o)
 .debug_ranges  0x000001e0       0x10 c:/program files/microchip/mplabc32/v2.02/bin/../lib/gcc/pic32mx/4.5.1/../../../../pic32mx/lib\libmchp_peripheral_32MX460F512L.a(int_disable_interrupts_lib.o)
 .debug_ranges  0x000001f0       0x10 c:/program files/microchip/mplabc32/v2.02/bin/../lib/gcc/pic32mx/4.5.1/../../../../pic32mx/lib\libmchp_peripheral_32MX460F512L.a(int_restore_interrupts_lib.o)
 .debug_ranges  0x00000200       0x10 c:/program files/microchip/mplabc32/v2.02/bin/../lib/gcc/pic32mx/4.5.1/../../../../pic32mx/lib\libmchp_peripheral_32MX460F512L.a(int_enable_mv_int_lib.o)
 .debug_ranges  0x00000210       0x48 c:/program files/microchip/mplabc32/v2.02/bin/../lib/gcc/pic32mx/4.5.1/../../../../pic32mx/lib\libmchp_peripheral_32MX460F512L.a(uart_lib.o)
 .debug_ranges  0x00000258       0x10 c:/program files/microchip/mplabc32/v2.02/bin/../lib/gcc/pic32mx/4.5.1/../../../../pic32mx/lib\libmchp_peripheral_32MX460F512L.a(int_enable_interrupts_lib.o)

.gnu.attributes
                0x00000000       0x10
 *(.gnu.attributes)
 .gnu.attributes
                0x00000000       0x10 build/default/production/_ext/1954962658/Announce.o
 .gnu.attributes
                0x00000010       0x10 build/default/production/_ext/1954962658/ARCFOUR.o
 .gnu.attributes
                0x00000020       0x10 build/default/production/_ext/1954962658/ARP.o
 .gnu.attributes
                0x00000030       0x10 build/default/production/_ext/1954962658/AutoIP.o
 .gnu.attributes
                0x00000040       0x10 build/default/production/_ext/1954962658/BerkeleyAPI.o
 .gnu.attributes
                0x00000050       0x10 build/default/production/_ext/1954962658/BigInt.o
 .gnu.attributes
                0x00000060       0x10 build/default/production/_ext/1954962658/Delay.o
 .gnu.attributes
                0x00000070       0x10 build/default/production/_ext/1954962658/DHCP.o
 .gnu.attributes
                0x00000080       0x10 build/default/production/_ext/1954962658/DHCPs.o
 .gnu.attributes
                0x00000090       0x10 build/default/production/_ext/1954962658/DNS.o
 .gnu.attributes
                0x000000a0       0x10 build/default/production/_ext/1954962658/DNSs.o
 .gnu.attributes
                0x000000b0       0x10 build/default/production/_ext/1954962658/DynDNS.o
 .gnu.attributes
                0x000000c0       0x10 build/default/production/_ext/1954962658/ENC28J60.o
 .gnu.attributes
                0x000000d0       0x10 build/default/production/_ext/1954962658/ENCX24J600.o
 .gnu.attributes
                0x000000e0       0x10 build/default/production/_ext/1954962658/FileSystem.o
 .gnu.attributes
                0x000000f0       0x10 build/default/production/_ext/1954962658/FTP.o
 .gnu.attributes
                0x00000100       0x10 build/default/production/_ext/1954962658/Hashes.o
 .gnu.attributes
                0x00000110       0x10 build/default/production/_ext/1954962658/Helpers.o
 .gnu.attributes
                0x00000120       0x10 build/default/production/_ext/1954962658/HTTP2.o
 .gnu.attributes
                0x00000130       0x10 build/default/production/_ext/1954962658/ICMP.o
 .gnu.attributes
                0x00000140       0x10 build/default/production/_ext/1954962658/IP.o
 .gnu.attributes
                0x00000150       0x10 build/default/production/_ext/1954962658/LCDBlocking.o
 .gnu.attributes
                0x00000160       0x10 build/default/production/_ext/1954962658/MPFS2.o
 .gnu.attributes
                0x00000170       0x10 build/default/production/_ext/1954962658/NBNS.o
 .gnu.attributes
                0x00000180       0x10 build/default/production/_ext/1954962658/Random.o
 .gnu.attributes
                0x00000190       0x10 build/default/production/_ext/1954962658/Reboot.o
 .gnu.attributes
                0x000001a0       0x10 build/default/production/_ext/1954962658/RSA.o
 .gnu.attributes
                0x000001b0       0x10 build/default/production/_ext/1954962658/SMTP.o
 .gnu.attributes
                0x000001c0       0x10 build/default/production/_ext/1954962658/SNMP.o
 .gnu.attributes
                0x000001d0       0x10 build/default/production/_ext/1954962658/SNMPv3.o
 .gnu.attributes
                0x000001e0       0x10 build/default/production/_ext/1954962658/SNMPv3USM.o
 .gnu.attributes
                0x000001f0       0x10 build/default/production/_ext/1954962658/SNTP.o
 .gnu.attributes
                0x00000200       0x10 build/default/production/_ext/1954962658/SPIEEPROM.o
 .gnu.attributes
                0x00000210       0x10 build/default/production/_ext/1954962658/SPIFlash.o
 .gnu.attributes
                0x00000220       0x10 build/default/production/_ext/1954962658/SPIRAM.o
 .gnu.attributes
                0x00000230       0x10 build/default/production/_ext/1954962658/SSL.o
 .gnu.attributes
                0x00000240       0x10 build/default/production/_ext/1954962658/StackTsk.o
 .gnu.attributes
                0x00000250       0x10 build/default/production/_ext/1954962658/TCP.o
 .gnu.attributes
                0x00000260       0x10 build/default/production/_ext/1954962658/TCPPerformanceTest.o
 .gnu.attributes
                0x00000270       0x10 build/default/production/_ext/1954962658/Telnet.o
 .gnu.attributes
                0x00000280       0x10 build/default/production/_ext/1954962658/TFTPc.o
 .gnu.attributes
                0x00000290       0x10 build/default/production/_ext/1954962658/Tick.o
 .gnu.attributes
                0x000002a0       0x10 build/default/production/_ext/1954962658/UART2TCPBridge.o
 .gnu.attributes
                0x000002b0       0x10 build/default/production/_ext/1954962658/UART.o
 .gnu.attributes
                0x000002c0       0x10 build/default/production/_ext/1954962658/UDP.o
 .gnu.attributes
                0x000002d0       0x10 build/default/production/_ext/1954962658/UDPPerformanceTest.o
 .gnu.attributes
                0x000002e0       0x10 build/default/production/_ext/1954962658/ZeroconfHelper.o
 .gnu.attributes
                0x000002f0       0x10 build/default/production/_ext/1954962658/ZeroconfLinkLocal.o
 .gnu.attributes
                0x00000300       0x10 build/default/production/_ext/1954962658/ZeroconfMulticastDNS.o
 .gnu.attributes
                0x00000310       0x10 build/default/production/_ext/1472/CustomHTTPApp.o
 .gnu.attributes
                0x00000320       0x10 build/default/production/_ext/1472/CustomSNMPApp.o
 .gnu.attributes
                0x00000330       0x10 build/default/production/_ext/1472/CustomSSLCert.o
 .gnu.attributes
                0x00000340       0x10 build/default/production/_ext/1472/MainDemo.o
 .gnu.attributes
                0x00000350       0x10 build/default/production/_ext/1472/BerkeleyTCPClientDemo.o
 .gnu.attributes
                0x00000360       0x10 build/default/production/_ext/1472/BerkeleyTCPServerDemo.o
 .gnu.attributes
                0x00000370       0x10 build/default/production/_ext/1472/BerkeleyUDPClientDemo.o
 .gnu.attributes
                0x00000380       0x10 build/default/production/_ext/1472/GenericTCPClient.o
 .gnu.attributes
                0x00000390       0x10 build/default/production/_ext/1472/GenericTCPServer.o
 .gnu.attributes
                0x000003a0       0x10 build/default/production/_ext/1472/PingDemo.o
 .gnu.attributes
                0x000003b0       0x10 build/default/production/_ext/1472/SMTPDemo.o
 .gnu.attributes
                0x000003c0       0x10 build/default/production/_ext/1472/UARTConfig.o
 .gnu.attributes
                0x000003d0       0x10 build/default/production/_ext/1472/MPFSImg2.o
 .gnu.attributes
                0x000003e0       0x10 c:/program files/microchip/mplabc32/v2.02/bin/../lib/gcc/pic32mx/4.5.1\libgcc.a(_udivdi3.o)
 .gnu.attributes
                0x000003f0       0x10 c:/program files/microchip/mplabc32/v2.02/bin/../lib/gcc/pic32mx/4.5.1/../../../../pic32mx/lib\libc.a(atoi.o)
 .gnu.attributes
                0x00000400       0x10 c:/program files/microchip/mplabc32/v2.02/bin/../lib/gcc/pic32mx/4.5.1/../../../../pic32mx/lib\libc.a(atol.o)
 .gnu.attributes
                0x00000410       0x10 c:/program files/microchip/mplabc32/v2.02/bin/../lib/gcc/pic32mx/4.5.1/../../../../pic32mx/lib\libc.a(ctype.o)
 .gnu.attributes
                0x00000420       0x10 c:/program files/microchip/mplabc32/v2.02/bin/../lib/gcc/pic32mx/4.5.1/../../../../pic32mx/lib\libc.a(strchr.o)
 .gnu.attributes
                0x00000430       0x10 c:/program files/microchip/mplabc32/v2.02/bin/../lib/gcc/pic32mx/4.5.1/../../../../pic32mx/lib\libc.a(strstr.o)
 .gnu.attributes
                0x00000440       0x10 c:/program files/microchip/mplabc32/v2.02/bin/../lib/gcc/pic32mx/4.5.1/../../../../pic32mx/lib\libc.a(default-bootstrap-exception-handler.o)
 .gnu.attributes
                0x00000450       0x10 c:/program files/microchip/mplabc32/v2.02/bin/../lib/gcc/pic32mx/4.5.1/../../../../pic32mx/lib\libc.a(default-on-reset.o)
 .gnu.attributes
                0x00000460       0x10 c:/program files/microchip/mplabc32/v2.02/bin/../lib/gcc/pic32mx/4.5.1/../../../../pic32mx/lib\libc.a(default-on-bootstrap.o)
 .gnu.attributes
                0x00000470       0x10 c:/program files/microchip/mplabc32/v2.02/bin/../lib/gcc/pic32mx/4.5.1/../../../../pic32mx/lib\libc.a(strncmp.o)
 .gnu.attributes
                0x00000480       0x10 c:/program files/microchip/mplabc32/v2.02/bin/../lib/gcc/pic32mx/4.5.1/../../../../pic32mx/lib\libmchp_peripheral_32MX460F512L.a(soft_reset_lib.o)
 .gnu.attributes
                0x00000490       0x10 c:/program files/microchip/mplabc32/v2.02/bin/../lib/gcc/pic32mx/4.5.1/../../../../pic32mx/lib\libmchp_peripheral_32MX460F512L.a(pcache.o)
 .gnu.attributes
                0x000004a0       0x10 c:/program files/microchip/mplabc32/v2.02/bin/../lib/gcc/pic32mx/4.5.1/../../../../pic32mx/lib\libmchp_peripheral_32MX460F512L.a(int_disable_interrupts_lib.o)
 .gnu.attributes
                0x000004b0       0x10 c:/program files/microchip/mplabc32/v2.02/bin/../lib/gcc/pic32mx/4.5.1/../../../../pic32mx/lib\libmchp_peripheral_32MX460F512L.a(int_restore_interrupts_lib.o)
 .gnu.attributes
                0x000004c0       0x10 c:/program files/microchip/mplabc32/v2.02/bin/../lib/gcc/pic32mx/4.5.1/../../../../pic32mx/lib\libmchp_peripheral_32MX460F512L.a(int_enable_mv_int_lib.o)
 .gnu.attributes
                0x000004d0       0x10 c:/program files/microchip/mplabc32/v2.02/bin/../lib/gcc/pic32mx/4.5.1/../../../../pic32mx/lib\libmchp_peripheral_32MX460F512L.a(uart_lib.o)
 .gnu.attributes
                0x000004e0       0x10 c:/program files/microchip/mplabc32/v2.02/bin/../lib/gcc/pic32mx/4.5.1/../../../../pic32mx/lib\libmchp_peripheral_32MX460F512L.a(int_enable_interrupts_lib.o)
LOAD c:/program files/microchip/mplabc32/v2.02/bin/../lib/gcc/pic32mx/4.5.1\libgcc.a
START GROUP
LOAD c:/program files/microchip/mplabc32/v2.02/bin/../lib/gcc/pic32mx/4.5.1/../../../../pic32mx/lib\libdebug.a
LOAD c:/program files/microchip/mplabc32/v2.02/bin/../lib/gcc/pic32mx/4.5.1/../../../../pic32mx/lib\libc.a
LOAD c:/program files/microchip/mplabc32/v2.02/bin/../lib/gcc/pic32mx/4.5.1/../../../../pic32mx/lib\libm.a
LOAD c:/program files/microchip/mplabc32/v2.02/bin/../lib/gcc/pic32mx/4.5.1/../../../../pic32mx/lib\libe.a
LOAD c:/program files/microchip/mplabc32/v2.02/bin/../lib/gcc/pic32mx/4.5.1/../../../../pic32mx/lib\libdsp.a
LOAD c:/program files/microchip/mplabc32/v2.02/bin/../lib/gcc/pic32mx/4.5.1/../../../../pic32mx/lib\libmchp_peripheral.a
LOAD c:/program files/microchip/mplabc32/v2.02/bin/../lib/gcc/pic32mx/4.5.1/../../../../pic32mx/lib\libmchp_peripheral_32MX460F512L.a
END GROUP
LOAD c:/program files/microchip/mplabc32/v2.02/bin/../lib/gcc/pic32mx/4.5.1\libgcc.a
OUTPUT(dist/default/production/SkP32_ENC28.X.production.elf elf32-tradlittlemips)
LOAD stack
LOAD data_init

.stack          0xa00008a8      0x400
 .stack         0xa00008a8      0x400 stack

.bss            0xa0000370      0x328
 .bss           0xa0000370      0x224 build/default/production/_ext/1954962658/TCP.o
 .bss           0xa0000594       0x8c build/default/production/_ext/1954962658/BerkeleyAPI.o
 .bss           0xa0000620       0x78 build/default/production/_ext/1954962658/MPFS2.o

.data           0xa0000698       0x70
 .data          0xa0000698       0x70 build/default/production/_ext/1472/BerkeleyTCPClientDemo.o

.bss            0xa0000708       0x5c
 .bss           0xa0000708       0x5c build/default/production/_ext/1472/CustomHTTPApp.o

.data           0xa0000764       0x48
 .data          0xa0000764       0x48 build/default/production/_ext/1472/SMTPDemo.o

.bss            0xa00007ac       0x9c
 .bss           0xa00007ac       0x34 build/default/production/_ext/1954962658/AutoIP.o
 .bss           0xa00007e0       0x30 build/default/production/_ext/1954962658/DHCP.o
 .bss           0xa0000810       0x18 build/default/production/_ext/1954962658/ARP.o
 .bss           0xa0000828       0x10 build/default/production/_ext/1472/BerkeleyTCPClientDemo.o
 .bss           0xa0000838       0x10 build/default/production/_ext/1472/BerkeleyUDPClientDemo.o

.data           0xa0000848       0x10
 .data          0xa0000848       0x10 build/default/production/_ext/1472/GenericTCPClient.o

.bss            0xa0000858       0x30
 .bss           0xa0000858        0xc build/default/production/_ext/1954962658/DNS.o
 .bss           0xa0000864        0xc build/default/production/_ext/1954962658/ICMP.o
 .bss           0xa0000870        0xc build/default/production/_ext/1954962658/SNTP.o
 .bss           0xa000087c        0xc build/default/production/_ext/1954962658/TCPPerformanceTest.o

.mdebug.abi32%z1
                0x00000000        0x0
 .mdebug.abi32  0x00000000        0x0 c:/program files/microchip/mplabc32/v2.02/bin/../lib/gcc/pic32mx/4.5.1/../../../../pic32mx/lib\libmchp_peripheral_32MX460F512L.a(int_enable_interrupts_lib.o)

.bss%z2         0x00000000        0x0
 .bss           0x00000000        0x0 c:/program files/microchip/mplabc32/v2.02/bin/../lib/gcc/pic32mx/4.5.1/../../../../pic32mx/lib\libmchp_peripheral_32MX460F512L.a(int_enable_interrupts_lib.o)

.data%z3        0x00000000        0x0
 .data          0x00000000        0x0 c:/program files/microchip/mplabc32/v2.02/bin/../lib/gcc/pic32mx/4.5.1/../../../../pic32mx/lib\libmchp_peripheral_32MX460F512L.a(int_enable_interrupts_lib.o)

.mdebug.abi32%z4
                0x00000000        0x0
 .mdebug.abi32  0x00000000        0x0 c:/program files/microchip/mplabc32/v2.02/bin/../lib/gcc/pic32mx/4.5.1/../../../../pic32mx/lib\libmchp_peripheral_32MX460F512L.a(uart_lib.o)

.bss%z5         0x00000000        0x0
 .bss           0x00000000        0x0 c:/program files/microchip/mplabc32/v2.02/bin/../lib/gcc/pic32mx/4.5.1/../../../../pic32mx/lib\libmchp_peripheral_32MX460F512L.a(uart_lib.o)

.data%z6        0x00000000        0x0
 .data          0x00000000        0x0 c:/program files/microchip/mplabc32/v2.02/bin/../lib/gcc/pic32mx/4.5.1/../../../../pic32mx/lib\libmchp_peripheral_32MX460F512L.a(uart_lib.o)

.mdebug.abi32%z7
                0x00000000        0x0
 .mdebug.abi32  0x00000000        0x0 c:/program files/microchip/mplabc32/v2.02/bin/../lib/gcc/pic32mx/4.5.1/../../../../pic32mx/lib\libmchp_peripheral_32MX460F512L.a(int_enable_mv_int_lib.o)

.bss%z8         0x00000000        0x0
 .bss           0x00000000        0x0 c:/program files/microchip/mplabc32/v2.02/bin/../lib/gcc/pic32mx/4.5.1/../../../../pic32mx/lib\libmchp_peripheral_32MX460F512L.a(int_enable_mv_int_lib.o)

.data%z9        0x00000000        0x0
 .data          0x00000000        0x0 c:/program files/microchip/mplabc32/v2.02/bin/../lib/gcc/pic32mx/4.5.1/../../../../pic32mx/lib\libmchp_peripheral_32MX460F512L.a(int_enable_mv_int_lib.o)

.mdebug.abi32%z10
                0x00000000        0x0
 .mdebug.abi32  0x00000000        0x0 c:/program files/microchip/mplabc32/v2.02/bin/../lib/gcc/pic32mx/4.5.1/../../../../pic32mx/lib\libmchp_peripheral_32MX460F512L.a(int_restore_interrupts_lib.o)

.bss%z11        0x00000000        0x0
 .bss           0x00000000        0x0 c:/program files/microchip/mplabc32/v2.02/bin/../lib/gcc/pic32mx/4.5.1/../../../../pic32mx/lib\libmchp_peripheral_32MX460F512L.a(int_restore_interrupts_lib.o)

.data%z12       0x00000000        0x0
 .data          0x00000000        0x0 c:/program files/microchip/mplabc32/v2.02/bin/../lib/gcc/pic32mx/4.5.1/../../../../pic32mx/lib\libmchp_peripheral_32MX460F512L.a(int_restore_interrupts_lib.o)

.mdebug.abi32%z13
                0x00000000        0x0
 .mdebug.abi32  0x00000000        0x0 c:/program files/microchip/mplabc32/v2.02/bin/../lib/gcc/pic32mx/4.5.1/../../../../pic32mx/lib\libmchp_peripheral_32MX460F512L.a(int_disable_interrupts_lib.o)

.bss%z14        0x00000000        0x0
 .bss           0x00000000        0x0 c:/program files/microchip/mplabc32/v2.02/bin/../lib/gcc/pic32mx/4.5.1/../../../../pic32mx/lib\libmchp_peripheral_32MX460F512L.a(int_disable_interrupts_lib.o)

.data%z15       0x00000000        0x0
 .data          0x00000000        0x0 c:/program files/microchip/mplabc32/v2.02/bin/../lib/gcc/pic32mx/4.5.1/../../../../pic32mx/lib\libmchp_peripheral_32MX460F512L.a(int_disable_interrupts_lib.o)

.mdebug.abi32%z16
                0x00000000        0x0
 .mdebug.abi32  0x00000000        0x0 c:/program files/microchip/mplabc32/v2.02/bin/../lib/gcc/pic32mx/4.5.1/../../../../pic32mx/lib\libmchp_peripheral_32MX460F512L.a(pcache.o)

.bss%z17        0x00000000        0x0
 .bss           0x00000000        0x0 c:/program files/microchip/mplabc32/v2.02/bin/../lib/gcc/pic32mx/4.5.1/../../../../pic32mx/lib\libmchp_peripheral_32MX460F512L.a(pcache.o)

.data%z18       0x00000000        0x0
 .data          0x00000000        0x0 c:/program files/microchip/mplabc32/v2.02/bin/../lib/gcc/pic32mx/4.5.1/../../../../pic32mx/lib\libmchp_peripheral_32MX460F512L.a(pcache.o)

.mdebug.abi32%z19
                0x00000000        0x0
 .mdebug.abi32  0x00000000        0x0 c:/program files/microchip/mplabc32/v2.02/bin/../lib/gcc/pic32mx/4.5.1/../../../../pic32mx/lib\libmchp_peripheral_32MX460F512L.a(soft_reset_lib.o)

.bss%z20        0x00000000        0x0
 .bss           0x00000000        0x0 c:/program files/microchip/mplabc32/v2.02/bin/../lib/gcc/pic32mx/4.5.1/../../../../pic32mx/lib\libmchp_peripheral_32MX460F512L.a(soft_reset_lib.o)

.data%z21       0x00000000        0x0
 .data          0x00000000        0x0 c:/program files/microchip/mplabc32/v2.02/bin/../lib/gcc/pic32mx/4.5.1/../../../../pic32mx/lib\libmchp_peripheral_32MX460F512L.a(soft_reset_lib.o)

.mdebug.abi32%z22
                0x00000000        0x0
 .mdebug.abi32  0x00000000        0x0 c:/program files/microchip/mplabc32/v2.02/bin/../lib/gcc/pic32mx/4.5.1/../../../../pic32mx/lib\libc.a(strncmp.o)

.bss%z23        0x00000000        0x0
 .bss           0x00000000        0x0 c:/program files/microchip/mplabc32/v2.02/bin/../lib/gcc/pic32mx/4.5.1/../../../../pic32mx/lib\libc.a(strncmp.o)

.data%z24       0x00000000        0x0
 .data          0x00000000        0x0 c:/program files/microchip/mplabc32/v2.02/bin/../lib/gcc/pic32mx/4.5.1/../../../../pic32mx/lib\libc.a(strncmp.o)

.bss%z25        0x00000000        0x0
 .bss           0x00000000        0x0 c:/program files/microchip/mplabc32/v2.02/bin/../lib/gcc/pic32mx/4.5.1/../../../../pic32mx/lib\libc.a(default-nmi-handler.o)

.data%z26       0x00000000        0x0
 .data          0x00000000        0x0 c:/program files/microchip/mplabc32/v2.02/bin/../lib/gcc/pic32mx/4.5.1/../../../../pic32mx/lib\libc.a(default-nmi-handler.o)

.mdebug.abi32%z27
                0x00000000        0x0
 .mdebug.abi32  0x00000000        0x0 c:/program files/microchip/mplabc32/v2.02/bin/../lib/gcc/pic32mx/4.5.1/../../../../pic32mx/lib\libc.a(default-on-bootstrap.o)

.bss%z28        0x00000000        0x0
 .bss           0x00000000        0x0 c:/program files/microchip/mplabc32/v2.02/bin/../lib/gcc/pic32mx/4.5.1/../../../../pic32mx/lib\libc.a(default-on-bootstrap.o)

.data%z29       0x00000000        0x0
 .data          0x00000000        0x0 c:/program files/microchip/mplabc32/v2.02/bin/../lib/gcc/pic32mx/4.5.1/../../../../pic32mx/lib\libc.a(default-on-bootstrap.o)

.mdebug.abi32%z30
                0x00000000        0x0
 .mdebug.abi32  0x00000000        0x0 c:/program files/microchip/mplabc32/v2.02/bin/../lib/gcc/pic32mx/4.5.1/../../../../pic32mx/lib\libc.a(default-on-reset.o)

.bss%z31        0x00000000        0x0
 .bss           0x00000000        0x0 c:/program files/microchip/mplabc32/v2.02/bin/../lib/gcc/pic32mx/4.5.1/../../../../pic32mx/lib\libc.a(default-on-reset.o)

.data%z32       0x00000000        0x0
 .data          0x00000000        0x0 c:/program files/microchip/mplabc32/v2.02/bin/../lib/gcc/pic32mx/4.5.1/../../../../pic32mx/lib\libc.a(default-on-reset.o)

.mdebug.abi32%z33
                0x00000000        0x0
 .mdebug.abi32  0x00000000        0x0 c:/program files/microchip/mplabc32/v2.02/bin/../lib/gcc/pic32mx/4.5.1/../../../../pic32mx/lib\libc.a(default-bootstrap-exception-handler.o)

.bss%z34        0x00000000        0x0
 .bss           0x00000000        0x0 c:/program files/microchip/mplabc32/v2.02/bin/../lib/gcc/pic32mx/4.5.1/../../../../pic32mx/lib\libc.a(default-bootstrap-exception-handler.o)

.data%z35       0x00000000        0x0
 .data          0x00000000        0x0 c:/program files/microchip/mplabc32/v2.02/bin/../lib/gcc/pic32mx/4.5.1/../../../../pic32mx/lib\libc.a(default-bootstrap-exception-handler.o)

.mdebug.abi32%z36
                0x00000000        0x0
 .mdebug.abi32  0x00000000        0x0 c:/program files/microchip/mplabc32/v2.02/bin/../lib/gcc/pic32mx/4.5.1/../../../../pic32mx/lib\libc.a(strstr.o)

.bss%z37        0x00000000        0x0
 .bss           0x00000000        0x0 c:/program files/microchip/mplabc32/v2.02/bin/../lib/gcc/pic32mx/4.5.1/../../../../pic32mx/lib\libc.a(strstr.o)

.data%z38       0x00000000        0x0
 .data          0x00000000        0x0 c:/program files/microchip/mplabc32/v2.02/bin/../lib/gcc/pic32mx/4.5.1/../../../../pic32mx/lib\libc.a(strstr.o)

.mdebug.abi32%z39
                0x00000000        0x0
 .mdebug.abi32  0x00000000        0x0 c:/program files/microchip/mplabc32/v2.02/bin/../lib/gcc/pic32mx/4.5.1/../../../../pic32mx/lib\libc.a(strchr.o)

.bss%z40        0x00000000        0x0
 .bss           0x00000000        0x0 c:/program files/microchip/mplabc32/v2.02/bin/../lib/gcc/pic32mx/4.5.1/../../../../pic32mx/lib\libc.a(strchr.o)

.data%z41       0x00000000        0x0
 .data          0x00000000        0x0 c:/program files/microchip/mplabc32/v2.02/bin/../lib/gcc/pic32mx/4.5.1/../../../../pic32mx/lib\libc.a(strchr.o)

.mdebug.abi32%z42
                0x00000000        0x0
 .mdebug.abi32  0x00000000        0x0 c:/program files/microchip/mplabc32/v2.02/bin/../lib/gcc/pic32mx/4.5.1/../../../../pic32mx/lib\libc.a(ctype.o)

.bss%z43        0x00000000        0x0
 .bss           0x00000000        0x0 c:/program files/microchip/mplabc32/v2.02/bin/../lib/gcc/pic32mx/4.5.1/../../../../pic32mx/lib\libc.a(ctype.o)

.data%z44       0x00000000        0x0
 .data          0x00000000        0x0 c:/program files/microchip/mplabc32/v2.02/bin/../lib/gcc/pic32mx/4.5.1/../../../../pic32mx/lib\libc.a(ctype.o)

.mdebug.abi32%z45
                0x00000000        0x0
 .mdebug.abi32  0x00000000        0x0 c:/program files/microchip/mplabc32/v2.02/bin/../lib/gcc/pic32mx/4.5.1/../../../../pic32mx/lib\libc.a(atol.o)

.bss%z46        0x00000000        0x0
 .bss           0x00000000        0x0 c:/program files/microchip/mplabc32/v2.02/bin/../lib/gcc/pic32mx/4.5.1/../../../../pic32mx/lib\libc.a(atol.o)

.data%z47       0x00000000        0x0
 .data          0x00000000        0x0 c:/program files/microchip/mplabc32/v2.02/bin/../lib/gcc/pic32mx/4.5.1/../../../../pic32mx/lib\libc.a(atol.o)

.mdebug.abi32%z48
                0x00000000        0x0
 .mdebug.abi32  0x00000000        0x0 c:/program files/microchip/mplabc32/v2.02/bin/../lib/gcc/pic32mx/4.5.1/../../../../pic32mx/lib\libc.a(atoi.o)

.bss%z49        0x00000000        0x0
 .bss           0x00000000        0x0 c:/program files/microchip/mplabc32/v2.02/bin/../lib/gcc/pic32mx/4.5.1/../../../../pic32mx/lib\libc.a(atoi.o)

.data%z50       0x00000000        0x0
 .data          0x00000000        0x0 c:/program files/microchip/mplabc32/v2.02/bin/../lib/gcc/pic32mx/4.5.1/../../../../pic32mx/lib\libc.a(atoi.o)

.bss%z51        0x00000000        0x0
 .bss           0x00000000        0x0 c:/program files/microchip/mplabc32/v2.02/bin/../lib/gcc/pic32mx/4.5.1/../../../../pic32mx/lib\libc.a(general-exception.o)

.data%z52       0x00000000        0x0
 .data          0x00000000        0x0 c:/program files/microchip/mplabc32/v2.02/bin/../lib/gcc/pic32mx/4.5.1/../../../../pic32mx/lib\libc.a(general-exception.o)

.bss%z53        0x00000000        0x0
 .bss           0x00000000        0x0 c:/program files/microchip/mplabc32/v2.02/bin/../lib/gcc/pic32mx/4.5.1/../../../../pic32mx/lib\libc.a(strlen.o)

.data%z54       0x00000000        0x0
 .data          0x00000000        0x0 c:/program files/microchip/mplabc32/v2.02/bin/../lib/gcc/pic32mx/4.5.1/../../../../pic32mx/lib\libc.a(strlen.o)

.bss%z55        0x00000000        0x0
 .bss           0x00000000        0x0 c:/program files/microchip/mplabc32/v2.02/bin/../lib/gcc/pic32mx/4.5.1/../../../../pic32mx/lib\libc.a(strcmp.o)

.data%z56       0x00000000        0x0
 .data          0x00000000        0x0 c:/program files/microchip/mplabc32/v2.02/bin/../lib/gcc/pic32mx/4.5.1/../../../../pic32mx/lib\libc.a(strcmp.o)

.bss%z57        0x00000000        0x0
 .bss           0x00000000        0x0 c:/program files/microchip/mplabc32/v2.02/bin/../lib/gcc/pic32mx/4.5.1/../../../../pic32mx/lib\libc.a(memset.o)

.data%z58       0x00000000        0x0
 .data          0x00000000        0x0 c:/program files/microchip/mplabc32/v2.02/bin/../lib/gcc/pic32mx/4.5.1/../../../../pic32mx/lib\libc.a(memset.o)

.bss%z59        0x00000000        0x0
 .bss           0x00000000        0x0 c:/program files/microchip/mplabc32/v2.02/bin/../lib/gcc/pic32mx/4.5.1/../../../../pic32mx/lib\libc.a(memcpy.o)

.data%z60       0x00000000        0x0
 .data          0x00000000        0x0 c:/program files/microchip/mplabc32/v2.02/bin/../lib/gcc/pic32mx/4.5.1/../../../../pic32mx/lib\libc.a(memcpy.o)

.bss%z61        0x00000000        0x0
 .bss           0x00000000        0x0 c:/program files/microchip/mplabc32/v2.02/bin/../lib/gcc/pic32mx/4.5.1/../../../../pic32mx/lib\libc.a(memcmp.o)

.data%z62       0x00000000        0x0
 .data          0x00000000        0x0 c:/program files/microchip/mplabc32/v2.02/bin/../lib/gcc/pic32mx/4.5.1/../../../../pic32mx/lib\libc.a(memcmp.o)

.mdebug.abi32%z63
                0x00000000        0x0
 .mdebug.abi32  0x00000000        0x0 c:/program files/microchip/mplabc32/v2.02/bin/../lib/gcc/pic32mx/4.5.1\libgcc.a(_udivdi3.o)

.bss%z64        0x00000000        0x0
 .bss           0x00000000        0x0 c:/program files/microchip/mplabc32/v2.02/bin/../lib/gcc/pic32mx/4.5.1\libgcc.a(_udivdi3.o)

.data%z65       0x00000000        0x0
 .data          0x00000000        0x0 c:/program files/microchip/mplabc32/v2.02/bin/../lib/gcc/pic32mx/4.5.1\libgcc.a(_udivdi3.o)

.bss%z66        0x00000000        0x0
 .bss           0x00000000        0x0 c:/program files/microchip/mplabc32/v2.02/bin/../lib/gcc/pic32mx/4.5.1/../../../../pic32mx/lib/./proc/32MX460F512L\processor.o

.data%z67       0x00000000        0x0
 .data          0x00000000        0x0 c:/program files/microchip/mplabc32/v2.02/bin/../lib/gcc/pic32mx/4.5.1/../../../../pic32mx/lib/./proc/32MX460F512L\processor.o

.bss%z68        0x00000000        0x0
 .bss           0x00000000        0x0 build/default/production/_ext/1954962658/BigInt_helper_C32.o

.data%z69       0x00000000        0x0
 .data          0x00000000        0x0 build/default/production/_ext/1954962658/BigInt_helper_C32.o

.mdebug.abi32%z70
                0x00000000        0x0
 .mdebug.abi32  0x00000000        0x0 build/default/production/_ext/1472/MPFSImg2.o

.bss%z71        0x00000000        0x0
 .bss           0x00000000        0x0 build/default/production/_ext/1472/MPFSImg2.o

.data%z72       0x00000000        0x0
 .data          0x00000000        0x0 build/default/production/_ext/1472/MPFSImg2.o

.mdebug.abi32%z73
                0x00000000        0x0
 .mdebug.abi32  0x00000000        0x0 build/default/production/_ext/1472/UARTConfig.o

.bss%z74        0x00000000        0x0
 .bss           0x00000000        0x0 build/default/production/_ext/1472/UARTConfig.o

.data%z75       0x00000000        0x0
 .data          0x00000000        0x0 build/default/production/_ext/1472/UARTConfig.o

.mdebug.abi32%z76
                0x00000000        0x0
 .mdebug.abi32  0x00000000        0x0 build/default/production/_ext/1472/SMTPDemo.o

.bss%z77        0x00000000        0x0
 .bss           0x00000000        0x0 build/default/production/_ext/1472/SMTPDemo.o

.mdebug.abi32%z78
                0x00000000        0x0
 .mdebug.abi32  0x00000000        0x0 build/default/production/_ext/1472/PingDemo.o

.bss%z79        0x00000000        0x0
 .bss           0x00000000        0x0 build/default/production/_ext/1472/PingDemo.o

.data%z80       0x00000000        0x0
 .data          0x00000000        0x0 build/default/production/_ext/1472/PingDemo.o

.mdebug.abi32%z81
                0x00000000        0x0
 .mdebug.abi32  0x00000000        0x0 build/default/production/_ext/1472/GenericTCPServer.o

.bss%z82        0x00000000        0x0
 .bss           0x00000000        0x0 build/default/production/_ext/1472/GenericTCPServer.o

.data%z83       0x00000000        0x0
 .data          0x00000000        0x0 build/default/production/_ext/1472/GenericTCPServer.o

.mdebug.abi32%z84
                0x00000000        0x0
 .mdebug.abi32  0x00000000        0x0 build/default/production/_ext/1472/GenericTCPClient.o

.bss%z85        0x00000000        0x0
 .bss           0x00000000        0x0 build/default/production/_ext/1472/GenericTCPClient.o

.mdebug.abi32%z86
                0x00000000        0x0
 .mdebug.abi32  0x00000000        0x0 build/default/production/_ext/1472/BerkeleyUDPClientDemo.o

.data%z87       0x00000000        0x0
 .data          0x00000000        0x0 build/default/production/_ext/1472/BerkeleyUDPClientDemo.o

.mdebug.abi32%z88
                0x00000000        0x0
 .mdebug.abi32  0x00000000        0x0 build/default/production/_ext/1472/BerkeleyTCPServerDemo.o

.bss%z89        0x00000000        0x0
 .bss           0x00000000        0x0 build/default/production/_ext/1472/BerkeleyTCPServerDemo.o

.data%z90       0x00000000        0x0
 .data          0x00000000        0x0 build/default/production/_ext/1472/BerkeleyTCPServerDemo.o

.mdebug.abi32%z91
                0x00000000        0x0
 .mdebug.abi32  0x00000000        0x0 build/default/production/_ext/1472/BerkeleyTCPClientDemo.o

.mdebug.abi32%z92
                0x00000000        0x0
 .mdebug.abi32  0x00000000        0x0 build/default/production/_ext/1472/MainDemo.o

.bss%z93        0x00000000        0x0
 .bss           0x00000000        0x0 build/default/production/_ext/1472/MainDemo.o

.data%z94       0x00000000        0x0
 .data          0x00000000        0x0 build/default/production/_ext/1472/MainDemo.o

.mdebug.abi32%z95
                0x00000000        0x0
 .mdebug.abi32  0x00000000        0x0 build/default/production/_ext/1472/CustomSSLCert.o

.bss%z96        0x00000000        0x0
 .bss           0x00000000        0x0 build/default/production/_ext/1472/CustomSSLCert.o

.data%z97       0x00000000        0x0
 .data          0x00000000        0x0 build/default/production/_ext/1472/CustomSSLCert.o

.mdebug.abi32%z98
                0x00000000        0x0
 .mdebug.abi32  0x00000000        0x0 build/default/production/_ext/1472/CustomSNMPApp.o

.bss%z99        0x00000000        0x0
 .bss           0x00000000        0x0 build/default/production/_ext/1472/CustomSNMPApp.o

.data%z100      0x00000000        0x0
 .data          0x00000000        0x0 build/default/production/_ext/1472/CustomSNMPApp.o

.mdebug.abi32%z101
                0x00000000        0x0
 .mdebug.abi32  0x00000000        0x0 build/default/production/_ext/1472/CustomHTTPApp.o

.data%z102      0x00000000        0x0
 .data          0x00000000        0x0 build/default/production/_ext/1472/CustomHTTPApp.o

.mdebug.abi32%z103
                0x00000000        0x0
 .mdebug.abi32  0x00000000        0x0 build/default/production/_ext/1954962658/ZeroconfMulticastDNS.o

.bss%z104       0x00000000        0x0
 .bss           0x00000000        0x0 build/default/production/_ext/1954962658/ZeroconfMulticastDNS.o

.data%z105      0x00000000        0x0
 .data          0x00000000        0x0 build/default/production/_ext/1954962658/ZeroconfMulticastDNS.o

.mdebug.abi32%z106
                0x00000000        0x0
 .mdebug.abi32  0x00000000        0x0 build/default/production/_ext/1954962658/ZeroconfLinkLocal.o

.bss%z107       0x00000000        0x0
 .bss           0x00000000        0x0 build/default/production/_ext/1954962658/ZeroconfLinkLocal.o

.data%z108      0x00000000        0x0
 .data          0x00000000        0x0 build/default/production/_ext/1954962658/ZeroconfLinkLocal.o

.mdebug.abi32%z109
                0x00000000        0x0
 .mdebug.abi32  0x00000000        0x0 build/default/production/_ext/1954962658/ZeroconfHelper.o

.bss%z110       0x00000000        0x0
 .bss           0x00000000        0x0 build/default/production/_ext/1954962658/ZeroconfHelper.o

.data%z111      0x00000000        0x0
 .data          0x00000000        0x0 build/default/production/_ext/1954962658/ZeroconfHelper.o

.mdebug.abi32%z112
                0x00000000        0x0
 .mdebug.abi32  0x00000000        0x0 build/default/production/_ext/1954962658/UDPPerformanceTest.o

.bss%z113       0x00000000        0x0
 .bss           0x00000000        0x0 build/default/production/_ext/1954962658/UDPPerformanceTest.o

.data%z114      0x00000000        0x0
 .data          0x00000000        0x0 build/default/production/_ext/1954962658/UDPPerformanceTest.o

.mdebug.abi32%z115
                0x00000000        0x0
 .mdebug.abi32  0x00000000        0x0 build/default/production/_ext/1954962658/UDP.o

.bss%z116       0x00000000        0x0
 .bss           0x00000000        0x0 build/default/production/_ext/1954962658/UDP.o

.data%z117      0x00000000        0x0
 .data          0x00000000        0x0 build/default/production/_ext/1954962658/UDP.o

.mdebug.abi32%z118
                0x00000000        0x0
 .mdebug.abi32  0x00000000        0x0 build/default/production/_ext/1954962658/UART.o

.bss%z119       0x00000000        0x0
 .bss           0x00000000        0x0 build/default/production/_ext/1954962658/UART.o

.data%z120      0x00000000        0x0
 .data          0x00000000        0x0 build/default/production/_ext/1954962658/UART.o

.mdebug.abi32%z121
                0x00000000        0x0
 .mdebug.abi32  0x00000000        0x0 build/default/production/_ext/1954962658/UART2TCPBridge.o

.bss%z122       0x00000000        0x0
 .bss           0x00000000        0x0 build/default/production/_ext/1954962658/UART2TCPBridge.o

.data%z123      0x00000000        0x0
 .data          0x00000000        0x0 build/default/production/_ext/1954962658/UART2TCPBridge.o

.mdebug.abi32%z124
                0x00000000        0x0
 .mdebug.abi32  0x00000000        0x0 build/default/production/_ext/1954962658/Tick.o

.bss%z125       0x00000000        0x0
 .bss           0x00000000        0x0 build/default/production/_ext/1954962658/Tick.o

.data%z126      0x00000000        0x0
 .data          0x00000000        0x0 build/default/production/_ext/1954962658/Tick.o

.mdebug.abi32%z127
                0x00000000        0x0
 .mdebug.abi32  0x00000000        0x0 build/default/production/_ext/1954962658/TFTPc.o

.bss%z128       0x00000000        0x0
 .bss           0x00000000        0x0 build/default/production/_ext/1954962658/TFTPc.o

.data%z129      0x00000000        0x0
 .data          0x00000000        0x0 build/default/production/_ext/1954962658/TFTPc.o

.mdebug.abi32%z130
                0x00000000        0x0
 .mdebug.abi32  0x00000000        0x0 build/default/production/_ext/1954962658/Telnet.o

.bss%z131       0x00000000        0x0
 .bss           0x00000000        0x0 build/default/production/_ext/1954962658/Telnet.o

.data%z132      0x00000000        0x0
 .data          0x00000000        0x0 build/default/production/_ext/1954962658/Telnet.o

.mdebug.abi32%z133
                0x00000000        0x0
 .mdebug.abi32  0x00000000        0x0 build/default/production/_ext/1954962658/TCPPerformanceTest.o

.data%z134      0x00000000        0x0
 .data          0x00000000        0x0 build/default/production/_ext/1954962658/TCPPerformanceTest.o

.mdebug.abi32%z135
                0x00000000        0x0
 .mdebug.abi32  0x00000000        0x0 build/default/production/_ext/1954962658/TCP.o

.data%z136      0x00000000        0x0
 .data          0x00000000        0x0 build/default/production/_ext/1954962658/TCP.o

.mdebug.abi32%z137
                0x00000000        0x0
 .mdebug.abi32  0x00000000        0x0 build/default/production/_ext/1954962658/StackTsk.o

.bss%z138       0x00000000        0x0
 .bss           0x00000000        0x0 build/default/production/_ext/1954962658/StackTsk.o

.data%z139      0x00000000        0x0
 .data          0x00000000        0x0 build/default/production/_ext/1954962658/StackTsk.o

.mdebug.abi32%z140
                0x00000000        0x0
 .mdebug.abi32  0x00000000        0x0 build/default/production/_ext/1954962658/SSL.o

.bss%z141       0x00000000        0x0
 .bss           0x00000000        0x0 build/default/production/_ext/1954962658/SSL.o

.data%z142      0x00000000        0x0
 .data          0x00000000        0x0 build/default/production/_ext/1954962658/SSL.o

.mdebug.abi32%z143
                0x00000000        0x0
 .mdebug.abi32  0x00000000        0x0 build/default/production/_ext/1954962658/SPIRAM.o

.bss%z144       0x00000000        0x0
 .bss           0x00000000        0x0 build/default/production/_ext/1954962658/SPIRAM.o

.data%z145      0x00000000        0x0
 .data          0x00000000        0x0 build/default/production/_ext/1954962658/SPIRAM.o

.mdebug.abi32%z146
                0x00000000        0x0
 .mdebug.abi32  0x00000000        0x0 build/default/production/_ext/1954962658/SPIFlash.o

.bss%z147       0x00000000        0x0
 .bss           0x00000000        0x0 build/default/production/_ext/1954962658/SPIFlash.o

.data%z148      0x00000000        0x0
 .data          0x00000000        0x0 build/default/production/_ext/1954962658/SPIFlash.o

.mdebug.abi32%z149
                0x00000000        0x0
 .mdebug.abi32  0x00000000        0x0 build/default/production/_ext/1954962658/SPIEEPROM.o

.bss%z150       0x00000000        0x0
 .bss           0x00000000        0x0 build/default/production/_ext/1954962658/SPIEEPROM.o

.data%z151      0x00000000        0x0
 .data          0x00000000        0x0 build/default/production/_ext/1954962658/SPIEEPROM.o

.mdebug.abi32%z152
                0x00000000        0x0
 .mdebug.abi32  0x00000000        0x0 build/default/production/_ext/1954962658/SNTP.o

.data%z153      0x00000000        0x0
 .data          0x00000000        0x0 build/default/production/_ext/1954962658/SNTP.o

.mdebug.abi32%z154
                0x00000000        0x0
 .mdebug.abi32  0x00000000        0x0 build/default/production/_ext/1954962658/SNMPv3USM.o

.bss%z155       0x00000000        0x0
 .bss           0x00000000        0x0 build/default/production/_ext/1954962658/SNMPv3USM.o

.data%z156      0x00000000        0x0
 .data          0x00000000        0x0 build/default/production/_ext/1954962658/SNMPv3USM.o

.mdebug.abi32%z157
                0x00000000        0x0
 .mdebug.abi32  0x00000000        0x0 build/default/production/_ext/1954962658/SNMPv3.o

.bss%z158       0x00000000        0x0
 .bss           0x00000000        0x0 build/default/production/_ext/1954962658/SNMPv3.o

.data%z159      0x00000000        0x0
 .data          0x00000000        0x0 build/default/production/_ext/1954962658/SNMPv3.o

.mdebug.abi32%z160
                0x00000000        0x0
 .mdebug.abi32  0x00000000        0x0 build/default/production/_ext/1954962658/SNMP.o

.bss%z161       0x00000000        0x0
 .bss           0x00000000        0x0 build/default/production/_ext/1954962658/SNMP.o

.data%z162      0x00000000        0x0
 .data          0x00000000        0x0 build/default/production/_ext/1954962658/SNMP.o

.mdebug.abi32%z163
                0x00000000        0x0
 .mdebug.abi32  0x00000000        0x0 build/default/production/_ext/1954962658/SMTP.o

.bss%z164       0x00000000        0x0
 .bss           0x00000000        0x0 build/default/production/_ext/1954962658/SMTP.o

.data%z165      0x00000000        0x0
 .data          0x00000000        0x0 build/default/production/_ext/1954962658/SMTP.o

.mdebug.abi32%z166
                0x00000000        0x0
 .mdebug.abi32  0x00000000        0x0 build/default/production/_ext/1954962658/RSA.o

.bss%z167       0x00000000        0x0
 .bss           0x00000000        0x0 build/default/production/_ext/1954962658/RSA.o

.data%z168      0x00000000        0x0
 .data          0x00000000        0x0 build/default/production/_ext/1954962658/RSA.o

.mdebug.abi32%z169
                0x00000000        0x0
 .mdebug.abi32  0x00000000        0x0 build/default/production/_ext/1954962658/Reboot.o

.bss%z170       0x00000000        0x0
 .bss           0x00000000        0x0 build/default/production/_ext/1954962658/Reboot.o

.data%z171      0x00000000        0x0
 .data          0x00000000        0x0 build/default/production/_ext/1954962658/Reboot.o

.mdebug.abi32%z172
                0x00000000        0x0
 .mdebug.abi32  0x00000000        0x0 build/default/production/_ext/1954962658/Random.o

.bss%z173       0x00000000        0x0
 .bss           0x00000000        0x0 build/default/production/_ext/1954962658/Random.o

.data%z174      0x00000000        0x0
 .data          0x00000000        0x0 build/default/production/_ext/1954962658/Random.o

.mdebug.abi32%z175
                0x00000000        0x0
 .mdebug.abi32  0x00000000        0x0 build/default/production/_ext/1954962658/NBNS.o

.bss%z176       0x00000000        0x0
 .bss           0x00000000        0x0 build/default/production/_ext/1954962658/NBNS.o

.data%z177      0x00000000        0x0
 .data          0x00000000        0x0 build/default/production/_ext/1954962658/NBNS.o

.mdebug.abi32%z178
                0x00000000        0x0
 .mdebug.abi32  0x00000000        0x0 build/default/production/_ext/1954962658/MPFS2.o

.data%z179      0x00000000        0x0
 .data          0x00000000        0x0 build/default/production/_ext/1954962658/MPFS2.o

.mdebug.abi32%z180
                0x00000000        0x0
 .mdebug.abi32  0x00000000        0x0 build/default/production/_ext/1954962658/LCDBlocking.o

.bss%z181       0x00000000        0x0
 .bss           0x00000000        0x0 build/default/production/_ext/1954962658/LCDBlocking.o

.data%z182      0x00000000        0x0
 .data          0x00000000        0x0 build/default/production/_ext/1954962658/LCDBlocking.o

.mdebug.abi32%z183
                0x00000000        0x0
 .mdebug.abi32  0x00000000        0x0 build/default/production/_ext/1954962658/IP.o

.bss%z184       0x00000000        0x0
 .bss           0x00000000        0x0 build/default/production/_ext/1954962658/IP.o

.data%z185      0x00000000        0x0
 .data          0x00000000        0x0 build/default/production/_ext/1954962658/IP.o

.mdebug.abi32%z186
                0x00000000        0x0
 .mdebug.abi32  0x00000000        0x0 build/default/production/_ext/1954962658/ICMP.o

.data%z187      0x00000000        0x0
 .data          0x00000000        0x0 build/default/production/_ext/1954962658/ICMP.o

.mdebug.abi32%z188
                0x00000000        0x0
 .mdebug.abi32  0x00000000        0x0 build/default/production/_ext/1954962658/HTTP2.o

.bss%z189       0x00000000        0x0
 .bss           0x00000000        0x0 build/default/production/_ext/1954962658/HTTP2.o

.data%z190      0x00000000        0x0
 .data          0x00000000        0x0 build/default/production/_ext/1954962658/HTTP2.o

.mdebug.abi32%z191
                0x00000000        0x0
 .mdebug.abi32  0x00000000        0x0 build/default/production/_ext/1954962658/Helpers.o

.bss%z192       0x00000000        0x0
 .bss           0x00000000        0x0 build/default/production/_ext/1954962658/Helpers.o

.data%z193      0x00000000        0x0
 .data          0x00000000        0x0 build/default/production/_ext/1954962658/Helpers.o

.mdebug.abi32%z194
                0x00000000        0x0
 .mdebug.abi32  0x00000000        0x0 build/default/production/_ext/1954962658/Hashes.o

.bss%z195       0x00000000        0x0
 .bss           0x00000000        0x0 build/default/production/_ext/1954962658/Hashes.o

.data%z196      0x00000000        0x0
 .data          0x00000000        0x0 build/default/production/_ext/1954962658/Hashes.o

.mdebug.abi32%z197
                0x00000000        0x0
 .mdebug.abi32  0x00000000        0x0 build/default/production/_ext/1954962658/FTP.o

.bss%z198       0x00000000        0x0
 .bss           0x00000000        0x0 build/default/production/_ext/1954962658/FTP.o

.data%z199      0x00000000        0x0
 .data          0x00000000        0x0 build/default/production/_ext/1954962658/FTP.o

.mdebug.abi32%z200
                0x00000000        0x0
 .mdebug.abi32  0x00000000        0x0 build/default/production/_ext/1954962658/FileSystem.o

.bss%z201       0x00000000        0x0
 .bss           0x00000000        0x0 build/default/production/_ext/1954962658/FileSystem.o

.data%z202      0x00000000        0x0
 .data          0x00000000        0x0 build/default/production/_ext/1954962658/FileSystem.o

.mdebug.abi32%z203
                0x00000000        0x0
 .mdebug.abi32  0x00000000        0x0 build/default/production/_ext/1954962658/ENCX24J600.o

.bss%z204       0x00000000        0x0
 .bss           0x00000000        0x0 build/default/production/_ext/1954962658/ENCX24J600.o

.data%z205      0x00000000        0x0
 .data          0x00000000        0x0 build/default/production/_ext/1954962658/ENCX24J600.o

.mdebug.abi32%z206
                0x00000000        0x0
 .mdebug.abi32  0x00000000        0x0 build/default/production/_ext/1954962658/ENC28J60.o

.bss%z207       0x00000000        0x0
 .bss           0x00000000        0x0 build/default/production/_ext/1954962658/ENC28J60.o

.data%z208      0x00000000        0x0
 .data          0x00000000        0x0 build/default/production/_ext/1954962658/ENC28J60.o

.mdebug.abi32%z209
                0x00000000        0x0
 .mdebug.abi32  0x00000000        0x0 build/default/production/_ext/1954962658/DynDNS.o

.bss%z210       0x00000000        0x0
 .bss           0x00000000        0x0 build/default/production/_ext/1954962658/DynDNS.o

.data%z211      0x00000000        0x0
 .data          0x00000000        0x0 build/default/production/_ext/1954962658/DynDNS.o

.mdebug.abi32%z212
                0x00000000        0x0
 .mdebug.abi32  0x00000000        0x0 build/default/production/_ext/1954962658/DNSs.o

.bss%z213       0x00000000        0x0
 .bss           0x00000000        0x0 build/default/production/_ext/1954962658/DNSs.o

.data%z214      0x00000000        0x0
 .data          0x00000000        0x0 build/default/production/_ext/1954962658/DNSs.o

.mdebug.abi32%z215
                0x00000000        0x0
 .mdebug.abi32  0x00000000        0x0 build/default/production/_ext/1954962658/DNS.o

.data%z216      0x00000000        0x0
 .data          0x00000000        0x0 build/default/production/_ext/1954962658/DNS.o

.mdebug.abi32%z217
                0x00000000        0x0
 .mdebug.abi32  0x00000000        0x0 build/default/production/_ext/1954962658/DHCPs.o

.bss%z218       0x00000000        0x0
 .bss           0x00000000        0x0 build/default/production/_ext/1954962658/DHCPs.o

.data%z219      0x00000000        0x0
 .data          0x00000000        0x0 build/default/production/_ext/1954962658/DHCPs.o

.mdebug.abi32%z220
                0x00000000        0x0
 .mdebug.abi32  0x00000000        0x0 build/default/production/_ext/1954962658/DHCP.o

.data%z221      0x00000000        0x0
 .data          0x00000000        0x0 build/default/production/_ext/1954962658/DHCP.o

.mdebug.abi32%z222
                0x00000000        0x0
 .mdebug.abi32  0x00000000        0x0 build/default/production/_ext/1954962658/Delay.o

.bss%z223       0x00000000        0x0
 .bss           0x00000000        0x0 build/default/production/_ext/1954962658/Delay.o

.data%z224      0x00000000        0x0
 .data          0x00000000        0x0 build/default/production/_ext/1954962658/Delay.o

.mdebug.abi32%z225
                0x00000000        0x0
 .mdebug.abi32  0x00000000        0x0 build/default/production/_ext/1954962658/BigInt.o

.bss%z226       0x00000000        0x0
 .bss           0x00000000        0x0 build/default/production/_ext/1954962658/BigInt.o

.data%z227      0x00000000        0x0
 .data          0x00000000        0x0 build/default/production/_ext/1954962658/BigInt.o

.mdebug.abi32%z228
                0x00000000        0x0
 .mdebug.abi32  0x00000000        0x0 build/default/production/_ext/1954962658/BerkeleyAPI.o

.data%z229      0x00000000        0x0
 .data          0x00000000        0x0 build/default/production/_ext/1954962658/BerkeleyAPI.o

.mdebug.abi32%z230
                0x00000000        0x0
 .mdebug.abi32  0x00000000        0x0 build/default/production/_ext/1954962658/AutoIP.o

.data%z231      0x00000000        0x0
 .data          0x00000000        0x0 build/default/production/_ext/1954962658/AutoIP.o

.mdebug.abi32%z232
                0x00000000        0x0
 .mdebug.abi32  0x00000000        0x0 build/default/production/_ext/1954962658/ARP.o

.data%z233      0x00000000        0x0
 .data          0x00000000        0x0 build/default/production/_ext/1954962658/ARP.o

.mdebug.abi32%z234
                0x00000000        0x0
 .mdebug.abi32  0x00000000        0x0 build/default/production/_ext/1954962658/ARCFOUR.o

.bss%z235       0x00000000        0x0
 .bss           0x00000000        0x0 build/default/production/_ext/1954962658/ARCFOUR.o

.data%z236      0x00000000        0x0
 .data          0x00000000        0x0 build/default/production/_ext/1954962658/ARCFOUR.o

.mdebug.abi32%z237
                0x00000000        0x0
 .mdebug.abi32  0x00000000        0x0 build/default/production/_ext/1954962658/Announce.o

.bss%z238       0x00000000        0x0
 .bss           0x00000000        0x0 build/default/production/_ext/1954962658/Announce.o

.data%z239      0x00000000        0x0
 .data          0x00000000        0x0 build/default/production/_ext/1954962658/Announce.o

.bss%z240       0x00000000        0x0
 .bss           0x00000000        0x0 c:/program files/microchip/mplabc32/v2.02/bin/../lib/gcc/pic32mx/4.5.1/../../../../pic32mx/lib/crt0.o

.data%z241      0x00000000        0x0
 .data          0x00000000        0x0 c:/program files/microchip/mplabc32/v2.02/bin/../lib/gcc/pic32mx/4.5.1/../../../../pic32mx/lib/crt0.o

.text           0x9d007e08     0x8470
 .text          0x9d007e08     0x8470 build/default/production/_ext/1954962658/TCP.o
                0x9d007f34                TCPInit
                0x9d008220                TCPOpen
                0x9d00869c                TCPWasReset
                0x9d008734                TCPIsConnected
                0x9d00878c                TCPDisconnect
                0x9d008a20                TCPClose
                0x9d008a90                TCPGetRemoteInfo
                0x9d008b0c                TCPFlush
                0x9d008b90                TCPIsPutReady
                0x9d008d6c                TCPPut
                0x9d0090c4                TCPPutArray
                0x9d009530                TCPPutString
                0x9d0095a0                TCPGetTxFIFOFull
                0x9d009654                TCPDiscard
                0x9d0096fc                TCPIsGetReady
                0x9d009880                TCPGet
                0x9d009b10                TCPGetArray
                0x9d009ed8                TCPGetRxFIFOFree
                0x9d009f84                TCPPeekArray
                0x9d00a220                TCPPeek
                0x9d00a280                TCPFindArrayEx
                0x9d00a898                TCPFindEx
                0x9d00a910                TCPTick
                0x9d00ba00                TCPProcess
                0x9d00f9b8                TCPAdjustFIFOSize

.rodata         0x9d010278     0x7aa8
 .rodata        0x9d010278     0x7aa8 build/default/production/_ext/1472/MPFSImg2.o
                0x9d010278                MPFS_Start

.text           0x9d017d20    0x1917c
 .text          0x9d017d20     0x3b38 build/default/production/_ext/1954962658/HTTP2.o
                0x9d017d20                HTTPPrint
                0x9d01832c                HTTPPrint_
                0x9d018380                HTTPInit
                0x9d0184a4                HTTPServer
                0x9d01aed0                HTTPURLDecode
                0x9d01b0ac                HTTPGetArg
                0x9d01b17c                HTTPReadPostName
                0x9d01b1f8                HTTPReadPostValue
                0x9d01b640                HTTPIncFile
 .text          0x9d01b858     0x30f8 build/default/production/_ext/1472/CustomHTTPApp.o
                0x9d01b858                HTTPNeedsAuth
                0x9d01b8e0                HTTPCheckAuth
                0x9d01b960                HTTPExecuteGet
                0x9d01bd74                HTTPExecutePost
                0x9d01d590                HTTPPrint_builddate
                0x9d01d64c                HTTPPrint_version
                0x9d01d6ac                HTTPPrint_btn
                0x9d01d7d8                HTTPPrint_led
                0x9d01d984                HTTPPrint_ledSelected
                0x9d01db54                HTTPPrint_pot
                0x9d01dbd4                HTTPPrint_lcdtext
                0x9d01dc60                HTTPPrint_hellomsg
                0x9d01dd18                HTTPPrint_cookiename
                0x9d01ddd8                HTTPPrint_uploadedmd5
                0x9d01e00c                HTTPPrintIP
                0x9d01e0f4                HTTPPrint_config_hostname
                0x9d01e14c                HTTPPrint_config_dhcpchecked
                0x9d01e1c8                HTTPPrint_config_ip
                0x9d01e214                HTTPPrint_config_gw
                0x9d01e260                HTTPPrint_config_subnet
                0x9d01e2ac                HTTPPrint_config_dns1
                0x9d01e2f8                HTTPPrint_config_dns2
                0x9d01e344                HTTPPrint_config_mac
                0x9d01e4d0                HTTPPrint_read_comm
                0x9d01e4f8                HTTPPrint_write_comm
                0x9d01e520                HTTPPrint_reboot
                0x9d01e538                HTTPPrint_rebootaddr
                0x9d01e590                HTTPPrint_ddns_user
                0x9d01e5b0                HTTPPrint_ddns_pass
                0x9d01e5d0                HTTPPrint_ddns_host
                0x9d01e5f0                HTTPPrint_ddns_service
                0x9d01e618                HTTPPrint_ddns_status
                0x9d01e678                HTTPPrint_ddns_status_msg
                0x9d01e730                HTTPPrint_smtps_en
                0x9d01e790                HTTPPrint_snmp_en
                0x9d01e7f0                HTTPPrint_status_ok
                0x9d01e8a0                HTTPPrint_status_fail
 .text          0x9d01e950     0x29a0 build/default/production/_ext/1954962658/SMTP.o
                0x9d01e950                SMTPBeginUsage
                0x9d01e9e8                SMTPEndUsage
                0x9d01eaa4                SMTPTask
                0x9d020b6c                SMTPSendMail
                0x9d020b9c                SMTPIsBusy
                0x9d020bc4                SMTPIsPutReady
                0x9d020c18                SMTPPut
                0x9d020dc0                SMTPPutArray
                0x9d020e74                SMTPPutString
                0x9d020f10                SMTPFlush
                0x9d020f48                SMTPPutDone
 .text          0x9d0212f0     0x2588 build/default/production/_ext/1954962658/ENC28J60.o
                0x9d0212f0                MACInit
                0x9d02165c                MACIsLinked
                0x9d0216a4                MACIsTxReady
                0x9d0216f0                MACDiscardRx
                0x9d021798                MACGetFreeRxSize
                0x9d021908                MACGetHeader
                0x9d021af0                MACPutHeader
                0x9d021be8                MACFlush
                0x9d021efc                MACSetReadPtrInRx
                0x9d021f90                MACSetWritePtr
                0x9d022028                MACSetReadPtr
                0x9d0220c0                MACCalcRxChecksum
                0x9d0221d4                CalcIPBufferChecksum
                0x9d02237c                MACMemCopyAsync
                0x9d022824                MACIsMemCopyDone
                0x9d022870                MACGet
                0x9d02291c                MACGetArray
                0x9d022ba0                MACPut
                0x9d022c5c                MACPutArray
                0x9d0231b4                ReadPHYReg
                0x9d023584                WritePHYReg
                0x9d0236a8                MACPowerDown
                0x9d023748                MACPowerUp
                0x9d0237bc                SetCLKOUT
                0x9d023818                GetCLKOUT
 .text          0x9d023878     0x1920 build/default/production/_ext/1954962658/BerkeleyAPI.o
                0x9d023878                BerkeleySocketInit
                0x9d0238e8                socket
                0x9d023a14                bind
                0x9d023b90                listen
                0x9d023e4c                accept
                0x9d02411c                connect
                0x9d024444                send
                0x9d0244a4                sendto
                0x9d024854                recv
                0x9d0249cc                recvfrom
                0x9d024c2c                gethostname
                0x9d024d20                closesocket
 .text          0x9d025198     0x1754 build/default/production/_ext/1954962658/DHCP.o
                0x9d025198                DHCPInit
                0x9d02528c                DHCPDisable
                0x9d0252fc                DHCPEnable
                0x9d02535c                DHCPIsEnabled
                0x9d025394                DHCPIsBound
                0x9d0253d0                DHCPStateChanged
                0x9d025434                DHCPIsServerDetected
                0x9d025470                DHCPTask
 .text          0x9d0268ec     0x16c8 build/default/production/_ext/1954962658/MPFS2.o
                0x9d0268ec                MPFSInit
                0x9d026970                MPFSOpen
                0x9d026c8c                MPFSOpenID
                0x9d026dfc                MPFSClose
                0x9d026e64                MPFSGet
                0x9d027088                MPFSGetArray
                0x9d027314                MPFSGetLong
                0x9d02736c                MPFSSeek
                0x9d027840                MPFSGetTimestamp
                0x9d0278fc                MPFSGetMicrotime
                0x9d0279b8                MPFSGetFlags
                0x9d027a74                MPFSGetSize
                0x9d027b30                MPFSGetBytesRem
                0x9d027bcc                MPFSGetStartAddr
                0x9d027c88                MPFSGetEndAddr
                0x9d027d54                MPFSGetFilename
                0x9d027e54                MPFSGetPosition
                0x9d027ec0                MPFSGetID
 .text          0x9d027fb4     0x168c build/default/production/_ext/1954962658/Helpers.o
                0x9d027fb4                LFSRSeedRand
                0x9d028038                LFSRRand
                0x9d0280b0                GenerateRandomDWORD
                0x9d02830c                StringToIPAddress
                0x9d0286ac                Base64Decode
                0x9d0289d8                Base64Encode
                0x9d028c90                uitoa
                0x9d028dbc                ultoa
                0x9d028ee4                hexatob
                0x9d028fd8                btohexa_high
                0x9d02903c                btohexa_low
                0x9d0290a0                stricmppgm2ram
                0x9d02920c                swaps
                0x9d029258                swapl
                0x9d029340                CalcIPChecksum
                0x9d029428                strupr
                0x9d0294c4                FormatNetBIOSName
                0x9d02958c                strnchr
 .text          0x9d029640      0xf2c build/default/production/_ext/1954962658/DNS.o
                0x9d029640                DNSBeginUsage
                0x9d029694                DNSEndUsage
                0x9d029704                DNSResolve
                0x9d029798                DNSIsResolved
 .text          0x9d02a56c      0xe5c build/default/production/_ext/1954962658/AutoIP.o
                0x9d02a56c                AutoIPInit
                0x9d02a604                AutoIPIsConfigured
                0x9d02a63c                AutoIPConfigIsInProgress
                0x9d02a678                AutoIPTasks
                0x9d02b08c                AutoIPConflict
                0x9d02b204                AutoIPDisable
                0x9d02b2a4                AutoIPEnable
                0x9d02b2ec                AutoIPIsDisabled
                0x9d02b320                AutoIPRandSeed
                0x9d02b35c                AutoIPRand
 .text          0x9d02b3c8      0xc5c build/default/production/_ext/1954962658/UDP.o
                0x9d02b3c8                UDPInit
                0x9d02b438                UDPTask
                0x9d02b460                UDPOpen
                0x9d02b5ac                UDPClose
                0x9d02b634                UDPSetTxBuffer
                0x9d02b680                UDPSetRxBuffer
                0x9d02b6d0                UDPIsPutReady
                0x9d02b75c                UDPPut
                0x9d02b7e8                UDPPutArray
                0x9d02b890                UDPPutString
                0x9d02b8e8                UDPFlush
                0x9d02bab4                UDPIsGetReady
                0x9d02bb44                UDPGet
                0x9d02bbc8                UDPGetArray
                0x9d02bc88                UDPDiscard
                0x9d02bce8                UDPProcess
 .text          0x9d02c024      0xc04 build/default/production/_ext/1954962658/DHCPs.o
                0x9d02c024                DHCPServerTask
 .text          0x9d02cc28      0xb28 build/default/production/_ext/1954962658/Telnet.o
                0x9d02cc28                TelnetTask
 .text          0x9d02d750      0x9ec build/default/production/_ext/1472/MainDemo.o
                0x9d02d750                _general_exception_handler
                0x9d02d77c                main
                0x9d02d8f0                DisplayIPValue
 .text          0x9d02e13c      0x7ac build/default/production/_ext/1954962658/Hashes.o
                0x9d02e13c                HashAddData
                0x9d02e19c                MD5Initialize
                0x9d02e210                MD5AddData
                0x9d02e5e8                MD5Calculate
 .text          0x9d02e8e8      0x720 build/default/production/_ext/1954962658/NBNS.o
                0x9d02e8e8                NBNSTask
 .text          0x9d02f008      0x6c4 build/default/production/_ext/1954962658/TCPPerformanceTest.o
                0x9d02f008                TCPPerformanceTask
                0x9d02f040                TCPTXPerformanceTask
                0x9d02f414                TCPRXPerformanceTask
 .text          0x9d02f6cc      0x6c0 build/default/production/_ext/1954962658/ARP.o
                0x9d02f7d4                ARPInit
                0x9d02f85c                ARPProcess
                0x9d02fb3c                ARPResolve
                0x9d02fc20                ARPIsResolved
                0x9d02fd00                SwapARPPacket
 .text          0x9d02fd8c      0x638 build/default/production/_ext/1954962658/ICMP.o
                0x9d02fd8c                ICMPProcess
                0x9d02ffac                ICMPSendPing
                0x9d030004                ICMPSendPingToHost
                0x9d030068                ICMPGetReply
                0x9d030344                ICMPBeginUsage
                0x9d030398                ICMPEndUsage
 .text          0x9d0303c4      0x574 build/default/production/_ext/1472/UARTConfig.o
                0x9d0303c4                DoUARTConfig
 .text          0x9d030938      0x564 build/default/production/_ext/1954962658/SNTP.o
                0x9d030938                SNTPClient
                0x9d030e04                SNTPGetUTCSeconds

.rodata         0x9d030e9c      0x548
 .rodata        0x9d030e9c      0x548 build/default/production/_ext/1954962658/HTTP2.o

.text           0x9d0313e4      0xd20
 .text          0x9d0313e4      0x4b4 build/default/production/_ext/1472/BerkeleyUDPClientDemo.o
                0x9d0313e4                BerkeleyUDPClientDemo
                0x9d031800                BerkeleySNTPGetUTCSeconds
 .text          0x9d031898      0x448 c:/program files/microchip/mplabc32/v2.02/bin/../lib/gcc/pic32mx/4.5.1\libgcc.a(_udivdi3.o)
                0x9d031898                __udivdi3
 .text          0x9d031ce0      0x424 build/default/production/_ext/1954962658/StackTsk.o
                0x9d031ce0                StackInit
                0x9d031d9c                StackTask
                0x9d032094                StackApplications

.dinit          0x9d032104      0x414
 .dinit         0x9d032104      0x414 data_init

.rodata         0x9d032518      0x3bc
 .rodata        0x9d032518      0x3bc build/default/production/_ext/1472/CustomHTTPApp.o
                0x9d032810                HTML_UP_ARROW
                0x9d032814                HTML_DOWN_ARROW

.text           0x9d0328d4     0x1ae8
 .text          0x9d0328d4      0x39c build/default/production/_ext/1954962658/Announce.o
                0x9d0328d4                AnnounceIP
                0x9d032a30                DiscoveryTask
 .text          0x9d032c70      0x378 build/default/production/_ext/1472/GenericTCPClient.o
                0x9d032c70                GenericTCPClient
 .text          0x9d032fe8      0x358 build/default/production/_ext/1954962658/Tick.o
                0x9d032fe8                TickInit
                0x9d033140                TickGet
                0x9d033178                TickGetDiv256
                0x9d0331e8                TickGetDiv64K
                0x9d033258                TickConvertToMilliseconds
                0x9d0332c0                _T1Interrupt
 .text          0x9d033340      0x348 build/default/production/_ext/1954962658/IP.o
                0x9d033340                IPGetHeader
                0x9d033480                IPPutHeader
                0x9d0335ac                IPSetRxBuffer
 .text          0x9d033688      0x2f4 build/default/production/_ext/1472/BerkeleyTCPClientDemo.o
                0x9d033688                BerkeleyTCPClientDemo
 .text          0x9d03397c      0x2ec build/default/production/_ext/1472/BerkeleyTCPServerDemo.o
                0x9d03397c                BerkeleyTCPServerDemo
 .text          0x9d033c68      0x294 build/default/production/_ext/1954962658/UART.o
                0x9d033c68                ReadStringUART
                0x9d033d6c                putrsUART
                0x9d033e34                putsUART
 .text          0x9d033efc      0x264 build/default/production/_ext/1472/GenericTCPServer.o
                0x9d033efc                GenericTCPServer
 .text          0x9d034160      0x25c build/default/production/_ext/1472/SMTPDemo.o
                0x9d034160                SMTPDemo

.rodata         0x9d0343bc      0x434
 .rodata        0x9d0343bc      0x250 build/default/production/_ext/1472/UARTConfig.o
 .rodata        0x9d03460c      0x1e4 build/default/production/_ext/1954962658/Telnet.o

.text           0x9d0347f0      0x57c
 .text          0x9d0347f0      0x168 c:/program files/microchip/mplabc32/v2.02/bin/../lib/gcc/pic32mx/4.5.1/../../../../pic32mx/lib\libc.a(memcpy.o)
                0x9d0347f0                memcpy
 .text          0x9d034958      0x168 c:/program files/microchip/mplabc32/v2.02/bin/../lib/gcc/pic32mx/4.5.1/../../../../pic32mx/lib\libc.a(strlen.o)
                0x9d034958                strlen
 .text          0x9d034ac0      0x158 build/default/production/_ext/1472/PingDemo.o
                0x9d034ac0                PingDemo
 .text          0x9d034c18      0x154 build/default/production/_ext/1954962658/Reboot.o
                0x9d034c18                RebootTask

.rodata         0x9d034d6c      0x270
 .rodata        0x9d034d6c      0x140 build/default/production/_ext/1954962658/Hashes.o
 .rodata        0x9d034eac      0x130 build/default/production/_ext/1472/BerkeleyTCPClientDemo.o

.text           0x9d034fdc      0x120
 .text          0x9d034fdc      0x120 c:/program files/microchip/mplabc32/v2.02/bin/../lib/gcc/pic32mx/4.5.1/../../../../pic32mx/lib\libc.a(strcmp.o)
                0x9d034fdc                strcmp

.rodata         0x9d0350fc      0x104
 .rodata        0x9d0350fc      0x104 c:/program files/microchip/mplabc32/v2.02/bin/../lib/gcc/pic32mx/4.5.1/../../../../pic32mx/lib\libc.a(ctype.o)
                0x9d0350fc                _ctype

.text           0x9d035200       0xf0
 .text          0x9d035200       0xf0 build/default/production/_ext/1954962658/Delay.o
                0x9d035200                DelayMs
                0x9d035294                Delay10us

.text.general_exception
                0x9d0352f0       0xd0
 .text.general_exception
                0x9d0352f0       0xd0 c:/program files/microchip/mplabc32/v2.02/bin/../lib/gcc/pic32mx/4.5.1/../../../../pic32mx/lib\libc.a(general-exception.o)
                0x9d0352f0                _general_exception_context

.text           0x9d0353c0       0xa8
 .text          0x9d0353c0       0xa8 c:/program files/microchip/mplabc32/v2.02/bin/../lib/gcc/pic32mx/4.5.1/../../../../pic32mx/lib\libc.a(memset.o)
                0x9d0353c0                memset

.text.atoi      0x9d035468       0xa4
 .text.atoi     0x9d035468       0xa4 c:/program files/microchip/mplabc32/v2.02/bin/../lib/gcc/pic32mx/4.5.1/../../../../pic32mx/lib\libc.a(atoi.o)
                0x9d035468                atoi

.text.atol      0x9d03550c       0xa4
 .text.atol     0x9d03550c       0xa4 c:/program files/microchip/mplabc32/v2.02/bin/../lib/gcc/pic32mx/4.5.1/../../../../pic32mx/lib\libc.a(atol.o)
                0x9d03550c                atol

.text.strstr    0x9d0355b0       0xa4
 .text.strstr   0x9d0355b0       0xa4 c:/program files/microchip/mplabc32/v2.02/bin/../lib/gcc/pic32mx/4.5.1/../../../../pic32mx/lib\libc.a(strstr.o)
                0x9d0355b0                strstr

.rodata         0x9d035654       0x98
 .rodata        0x9d035654       0x98 build/default/production/_ext/1954962658/SMTP.o

.text           0x9d0356ec       0x98
 .text          0x9d0356ec       0x98 c:/program files/microchip/mplabc32/v2.02/bin/../lib/gcc/pic32mx/4.5.1/../../../../pic32mx/lib\libc.a(memcmp.o)
                0x9d0356ec                memcmp

.rodata         0x9d035784       0x94
 .rodata        0x9d035784       0x94 build/default/production/_ext/1472/GenericTCPClient.o

.text.UARTEnable
                0x9d035818       0x80
 .text.UARTEnable
                0x9d035818       0x80 c:/program files/microchip/mplabc32/v2.02/bin/../lib/gcc/pic32mx/4.5.1/../../../../pic32mx/lib\libmchp_peripheral_32MX460F512L.a(uart_lib.o)
                0x9d035818                UARTEnable

.text.SoftReset
                0x9d035898       0x78
 .text.SoftReset
                0x9d035898       0x78 c:/program files/microchip/mplabc32/v2.02/bin/../lib/gcc/pic32mx/4.5.1/../../../../pic32mx/lib\libmchp_peripheral_32MX460F512L.a(soft_reset_lib.o)
                0x9d035898                SoftReset

.text.strncmp   0x9d035910       0x70
 .text.strncmp  0x9d035910       0x70 c:/program files/microchip/mplabc32/v2.02/bin/../lib/gcc/pic32mx/4.5.1/../../../../pic32mx/lib\libc.a(strncmp.o)
                0x9d035910                strncmp

.rodata         0x9d035980       0x5c
 .rodata        0x9d035980       0x5c build/default/production/_ext/1954962658/TCPPerformanceTest.o

.text.UARTSetDataRate
                0x9d0359dc       0x5c
 .text.UARTSetDataRate
                0x9d0359dc       0x5c c:/program files/microchip/mplabc32/v2.02/bin/../lib/gcc/pic32mx/4.5.1/../../../../pic32mx/lib\libmchp_peripheral_32MX460F512L.a(uart_lib.o)
                0x9d0359dc                UARTSetDataRate

.rodata         0x9d035a38       0x50
 .rodata        0x9d035a38       0x50 build/default/production/_ext/1472/SMTPDemo.o

.text.UARTGetDataRate
                0x9d035a88       0x40
 .text.UARTGetDataRate
                0x9d035a88       0x40 c:/program files/microchip/mplabc32/v2.02/bin/../lib/gcc/pic32mx/4.5.1/../../../../pic32mx/lib\libmchp_peripheral_32MX460F512L.a(uart_lib.o)
                0x9d035a88                UARTGetDataRate

.text.UARTConfigure
                0x9d035ac8       0x3c
 .text.UARTConfigure
                0x9d035ac8       0x3c c:/program files/microchip/mplabc32/v2.02/bin/../lib/gcc/pic32mx/4.5.1/../../../../pic32mx/lib\libmchp_peripheral_32MX460F512L.a(uart_lib.o)
                0x9d035ac8                UARTConfigure

.text.UARTSetAddress
                0x9d035b04       0x3c
 .text.UARTSetAddress
                0x9d035b04       0x3c c:/program files/microchip/mplabc32/v2.02/bin/../lib/gcc/pic32mx/4.5.1/../../../../pic32mx/lib\libmchp_peripheral_32MX460F512L.a(uart_lib.o)
                0x9d035b04                UARTSetAddress

.rodata         0x9d035b40       0x38
 .rodata        0x9d035b40       0x38 build/default/production/_ext/1954962658/TCP.o
                0x9d035b40                TCPSocketInitializer

.text.UARTWatchForAddress
                0x9d035b78       0x38
 .text.UARTWatchForAddress
                0x9d035b78       0x38 c:/program files/microchip/mplabc32/v2.02/bin/../lib/gcc/pic32mx/4.5.1/../../../../pic32mx/lib\libmchp_peripheral_32MX460F512L.a(uart_lib.o)
                0x9d035b78                UARTWatchForAddress

.text.INTEnableSystemMultiVectoredInt
                0x9d035bb0       0x34
 .text.INTEnableSystemMultiVectoredInt
                0x9d035bb0       0x34 c:/program files/microchip/mplabc32/v2.02/bin/../lib/gcc/pic32mx/4.5.1/../../../../pic32mx/lib\libmchp_peripheral_32MX460F512L.a(int_enable_mv_int_lib.o)
                0x9d035bb0                INTEnableSystemMultiVectoredInt

.rodata         0x9d035be4       0x2c
 .rodata        0x9d035be4       0x2c build/default/production/_ext/1472/MainDemo.o

.text.strchr    0x9d035c10       0x28
 .text.strchr   0x9d035c10       0x28 c:/program files/microchip/mplabc32/v2.02/bin/../lib/gcc/pic32mx/4.5.1/../../../../pic32mx/lib\libc.a(strchr.o)
                0x9d035c10                strchr

.text.UARTSetFifoMode
                0x9d035c38       0x28
 .text.UARTSetFifoMode
                0x9d035c38       0x28 c:/program files/microchip/mplabc32/v2.02/bin/../lib/gcc/pic32mx/4.5.1/../../../../pic32mx/lib\libmchp_peripheral_32MX460F512L.a(uart_lib.o)
                0x9d035c38                UARTSetFifoMode

.text.UARTSetLineControl
                0x9d035c60       0x28
 .text.UARTSetLineControl
                0x9d035c60       0x28 c:/program files/microchip/mplabc32/v2.02/bin/../lib/gcc/pic32mx/4.5.1/../../../../pic32mx/lib\libmchp_peripheral_32MX460F512L.a(uart_lib.o)
                0x9d035c60                UARTSetLineControl

.rodata         0x9d035c88       0x1c
 .rodata        0x9d035c88       0x1c build/default/production/_ext/1954962658/Announce.o

.text.INTRestoreInterrupts
                0x9d035ca4       0x1c
 .text.INTRestoreInterrupts
                0x9d035ca4       0x1c c:/program files/microchip/mplabc32/v2.02/bin/../lib/gcc/pic32mx/4.5.1/../../../../pic32mx/lib\libmchp_peripheral_32MX460F512L.a(int_restore_interrupts_lib.o)
                0x9d035ca4                INTRestoreInterrupts

.text           0x9d035cc0       0x18
 .text          0x9d035cc0       0x18 c:/program files/microchip/mplabc32/v2.02/bin/../lib/gcc/pic32mx/4.5.1/../../../../pic32mx/lib\libc.a(default-nmi-handler.o)
                0x9d035cc0                _nmi_handler

.text.CheKseg0CacheOff
                0x9d035cd8       0x18
 .text.CheKseg0CacheOff
                0x9d035cd8       0x18 c:/program files/microchip/mplabc32/v2.02/bin/../lib/gcc/pic32mx/4.5.1/../../../../pic32mx/lib\libmchp_peripheral_32MX460F512L.a(pcache.o)
                0x9d035cd8                CheKseg0CacheOff

.text.CheKseg0CacheOn
                0x9d035cf0       0x18
 .text.CheKseg0CacheOn
                0x9d035cf0       0x18 c:/program files/microchip/mplabc32/v2.02/bin/../lib/gcc/pic32mx/4.5.1/../../../../pic32mx/lib\libmchp_peripheral_32MX460F512L.a(pcache.o)
                0x9d035cf0                CheKseg0CacheOn

.rodata         0x9d035d08       0x14
 .rodata        0x9d035d08       0x14 build/default/production/_ext/1472/PingDemo.o

.text           0x9d035d1c       0x10
 .text          0x9d035d1c       0x10 c:/program files/microchip/mplabc32/v2.02/bin/../lib/gcc/pic32mx/4.5.1/../../../../pic32mx/lib/crt0.o
                0x9d035d24                __crt0_exit

.rodata         0x9d035d2c       0x20
 .rodata        0x9d035d2c       0x10 build/default/production/_ext/1954962658/SNTP.o
 .rodata        0x9d035d3c       0x10 build/default/production/_ext/1472/BerkeleyUDPClientDemo.o

.text._bootstrap_exception_handler
                0x9d035d4c        0xc
 .text._bootstrap_exception_handler
                0x9d035d4c        0xc c:/program files/microchip/mplabc32/v2.02/bin/../lib/gcc/pic32mx/4.5.1/../../../../pic32mx/lib\libc.a(default-bootstrap-exception-handler.o)
                0x9d035d4c                _bootstrap_exception_handler

.rodata         0x9d035d58        0x8
 .rodata        0x9d035d58        0x8 build/default/production/_ext/1954962658/MPFS2.o

.text._on_reset
                0x9d035d60        0x8
 .text._on_reset
                0x9d035d60        0x8 c:/program files/microchip/mplabc32/v2.02/bin/../lib/gcc/pic32mx/4.5.1/../../../../pic32mx/lib\libc.a(default-on-reset.o)
                0x9d035d60                _on_reset

.text._on_bootstrap
                0x9d035d68        0x8
 .text._on_bootstrap
                0x9d035d68        0x8 c:/program files/microchip/mplabc32/v2.02/bin/../lib/gcc/pic32mx/4.5.1/../../../../pic32mx/lib\libc.a(default-on-bootstrap.o)
                0x9d035d68                _on_bootstrap

.text.INTDisableInterrupts
                0x9d035d70        0x8
 .text.INTDisableInterrupts
                0x9d035d70        0x8 c:/program files/microchip/mplabc32/v2.02/bin/../lib/gcc/pic32mx/4.5.1/../../../../pic32mx/lib\libmchp_peripheral_32MX460F512L.a(int_disable_interrupts_lib.o)
                0x9d035d70                INTDisableInterrupts

.rodata         0x9d035d78        0x8
 .rodata        0x9d035d78        0x8 c:/program files/microchip/mplabc32/v2.02/bin/../lib/gcc/pic32mx/4.5.1/../../../../pic32mx/lib\libmchp_peripheral_32MX460F512L.a(uart_lib.o)
                0x9d035d78                uartReg

.text.INTEnableInterrupts
                0x9d035d80        0x8
 .text.INTEnableInterrupts
                0x9d035d80        0x8 c:/program files/microchip/mplabc32/v2.02/bin/../lib/gcc/pic32mx/4.5.1/../../../../pic32mx/lib\libmchp_peripheral_32MX460F512L.a(int_enable_interrupts_lib.o)
                0x9d035d80                INTEnableInterrupts

.text%z242      0x00000000        0x0
 .text          0x00000000        0x0 c:/program files/microchip/mplabc32/v2.02/bin/../lib/gcc/pic32mx/4.5.1/../../../../pic32mx/lib\libmchp_peripheral_32MX460F512L.a(int_enable_interrupts_lib.o)

.text%z243      0x00000000        0x0
 .text          0x00000000        0x0 c:/program files/microchip/mplabc32/v2.02/bin/../lib/gcc/pic32mx/4.5.1/../../../../pic32mx/lib\libmchp_peripheral_32MX460F512L.a(uart_lib.o)

.text%z244      0x00000000        0x0
 .text          0x00000000        0x0 c:/program files/microchip/mplabc32/v2.02/bin/../lib/gcc/pic32mx/4.5.1/../../../../pic32mx/lib\libmchp_peripheral_32MX460F512L.a(int_enable_mv_int_lib.o)

.text%z245      0x00000000        0x0
 .text          0x00000000        0x0 c:/program files/microchip/mplabc32/v2.02/bin/../lib/gcc/pic32mx/4.5.1/../../../../pic32mx/lib\libmchp_peripheral_32MX460F512L.a(int_restore_interrupts_lib.o)

.text%z246      0x00000000        0x0
 .text          0x00000000        0x0 c:/program files/microchip/mplabc32/v2.02/bin/../lib/gcc/pic32mx/4.5.1/../../../../pic32mx/lib\libmchp_peripheral_32MX460F512L.a(int_disable_interrupts_lib.o)

.text%z247      0x00000000        0x0
 .text          0x00000000        0x0 c:/program files/microchip/mplabc32/v2.02/bin/../lib/gcc/pic32mx/4.5.1/../../../../pic32mx/lib\libmchp_peripheral_32MX460F512L.a(pcache.o)

.text%z248      0x00000000        0x0
 .text          0x00000000        0x0 c:/program files/microchip/mplabc32/v2.02/bin/../lib/gcc/pic32mx/4.5.1/../../../../pic32mx/lib\libmchp_peripheral_32MX460F512L.a(soft_reset_lib.o)

.text%z249      0x00000000        0x0
 .text          0x00000000        0x0 c:/program files/microchip/mplabc32/v2.02/bin/../lib/gcc/pic32mx/4.5.1/../../../../pic32mx/lib\libc.a(strncmp.o)

.text%z250      0x00000000        0x0
 .text          0x00000000        0x0 c:/program files/microchip/mplabc32/v2.02/bin/../lib/gcc/pic32mx/4.5.1/../../../../pic32mx/lib\libc.a(default-on-bootstrap.o)

.text%z251      0x00000000        0x0
 .text          0x00000000        0x0 c:/program files/microchip/mplabc32/v2.02/bin/../lib/gcc/pic32mx/4.5.1/../../../../pic32mx/lib\libc.a(default-on-reset.o)

.text%z252      0x00000000        0x0
 .text          0x00000000        0x0 c:/program files/microchip/mplabc32/v2.02/bin/../lib/gcc/pic32mx/4.5.1/../../../../pic32mx/lib\libc.a(default-bootstrap-exception-handler.o)

.text%z253      0x00000000        0x0
 .text          0x00000000        0x0 c:/program files/microchip/mplabc32/v2.02/bin/../lib/gcc/pic32mx/4.5.1/../../../../pic32mx/lib\libc.a(strstr.o)

.text%z254      0x00000000        0x0
 .text          0x00000000        0x0 c:/program files/microchip/mplabc32/v2.02/bin/../lib/gcc/pic32mx/4.5.1/../../../../pic32mx/lib\libc.a(strchr.o)

.text%z255      0x00000000        0x0
 .text          0x00000000        0x0 c:/program files/microchip/mplabc32/v2.02/bin/../lib/gcc/pic32mx/4.5.1/../../../../pic32mx/lib\libc.a(ctype.o)

.text%z256      0x00000000        0x0
 .text          0x00000000        0x0 c:/program files/microchip/mplabc32/v2.02/bin/../lib/gcc/pic32mx/4.5.1/../../../../pic32mx/lib\libc.a(atol.o)

.text%z257      0x00000000        0x0
 .text          0x00000000        0x0 c:/program files/microchip/mplabc32/v2.02/bin/../lib/gcc/pic32mx/4.5.1/../../../../pic32mx/lib\libc.a(atoi.o)

.text%z258      0x00000000        0x0
 .text          0x00000000        0x0 c:/program files/microchip/mplabc32/v2.02/bin/../lib/gcc/pic32mx/4.5.1/../../../../pic32mx/lib\libc.a(general-exception.o)

.text%z259      0x00000000        0x0
 .text          0x00000000        0x0 c:/program files/microchip/mplabc32/v2.02/bin/../lib/gcc/pic32mx/4.5.1/../../../../pic32mx/lib/./proc/32MX460F512L\processor.o

.text%z260      0x00000000        0x0
 .text          0x00000000        0x0 build/default/production/_ext/1954962658/BigInt_helper_C32.o

.text%z261      0x00000000        0x0
 .text          0x00000000        0x0 build/default/production/_ext/1472/MPFSImg2.o

.text%z262      0x00000000        0x0
 .text          0x00000000        0x0 build/default/production/_ext/1472/CustomSSLCert.o

.text%z263      0x00000000        0x0
 .text          0x00000000        0x0 build/default/production/_ext/1472/CustomSNMPApp.o

.text%z264      0x00000000        0x0
 .text          0x00000000        0x0 build/default/production/_ext/1954962658/ZeroconfMulticastDNS.o

.text%z265      0x00000000        0x0
 .text          0x00000000        0x0 build/default/production/_ext/1954962658/ZeroconfLinkLocal.o

.text%z266      0x00000000        0x0
 .text          0x00000000        0x0 build/default/production/_ext/1954962658/ZeroconfHelper.o

.text%z267      0x00000000        0x0
 .text          0x00000000        0x0 build/default/production/_ext/1954962658/UDPPerformanceTest.o

.text%z268      0x00000000        0x0
 .text          0x00000000        0x0 build/default/production/_ext/1954962658/UART2TCPBridge.o

.text%z269      0x00000000        0x0
 .text          0x00000000        0x0 build/default/production/_ext/1954962658/TFTPc.o

.text%z270      0x00000000        0x0
 .text          0x00000000        0x0 build/default/production/_ext/1954962658/SSL.o

.text%z271      0x00000000        0x0
 .text          0x00000000        0x0 build/default/production/_ext/1954962658/SPIRAM.o

.text%z272      0x00000000        0x0
 .text          0x00000000        0x0 build/default/production/_ext/1954962658/SPIFlash.o

.text%z273      0x00000000        0x0
 .text          0x00000000        0x0 build/default/production/_ext/1954962658/SPIEEPROM.o

.text%z274      0x00000000        0x0
 .text          0x00000000        0x0 build/default/production/_ext/1954962658/SNMPv3USM.o

.text%z275      0x00000000        0x0
 .text          0x00000000        0x0 build/default/production/_ext/1954962658/SNMPv3.o

.text%z276      0x00000000        0x0
 .text          0x00000000        0x0 build/default/production/_ext/1954962658/SNMP.o

.text%z277      0x00000000        0x0
 .text          0x00000000        0x0 build/default/production/_ext/1954962658/RSA.o

.text%z278      0x00000000        0x0
 .text          0x00000000        0x0 build/default/production/_ext/1954962658/Random.o

.text%z279      0x00000000        0x0
 .text          0x00000000        0x0 build/default/production/_ext/1954962658/LCDBlocking.o

.text%z280      0x00000000        0x0
 .text          0x00000000        0x0 build/default/production/_ext/1954962658/FTP.o

.text%z281      0x00000000        0x0
 .text          0x00000000        0x0 build/default/production/_ext/1954962658/FileSystem.o

.text%z282      0x00000000        0x0
 .text          0x00000000        0x0 build/default/production/_ext/1954962658/ENCX24J600.o

.text%z283      0x00000000        0x0
 .text          0x00000000        0x0 build/default/production/_ext/1954962658/DynDNS.o

.text%z284      0x00000000        0x0
 .text          0x00000000        0x0 build/default/production/_ext/1954962658/DNSs.o

.text%z285      0x00000000        0x0
 .text          0x00000000        0x0 build/default/production/_ext/1954962658/BigInt.o

.text%z286      0x00000000        0x0
 .text          0x00000000        0x0 build/default/production/_ext/1954962658/ARCFOUR.o
